
build/gsmbase.elf:     file format elf32-littlearm
build/gsmbase.elf
architecture: armv6s-m, flags 0x00000112:
EXEC_P, HAS_SYMS, D_PAGED
start address 0x000014e1

Program Header:
    LOAD off    0x00010000 vaddr 0x00000000 paddr 0x00000000 align 2**16
         filesz 0x00003654 memsz 0x00003654 flags r-x
    LOAD off    0x00020000 vaddr 0x20000000 paddr 0x00003654 align 2**16
         filesz 0x000000e4 memsz 0x000000e4 flags rwx
    LOAD off    0x000200e8 vaddr 0x200000e8 paddr 0x00003738 align 2**16
         filesz 0x00000000 memsz 0x000004ac flags rw-
private flags = 5000200: [Version5 EABI] [soft-float ABI]

Sections:
Idx Name          Size      VMA       LMA       File off  Algn
  0 .text         00003654  00000000  00000000  00010000  2**3
                  CONTENTS, ALLOC, LOAD, READONLY, CODE
  1 .data         000000e4  20000000  00003654  00020000  2**2
                  CONTENTS, ALLOC, LOAD, CODE
  2 .bss          000004ac  200000e8  00003738  000200e8  2**3
                  ALLOC
  3 .ARM.attributes 00000028  00000000  00000000  000200e4  2**0
                  CONTENTS, READONLY
  4 .comment      00000079  00000000  00000000  0002010c  2**0
                  CONTENTS, READONLY
  5 .debug_frame  000007d0  00000000  00000000  00020188  2**2
                  CONTENTS, READONLY, DEBUGGING
SYMBOL TABLE:
00000000 l    d  .text	00000000 .text
20000000 l    d  .data	00000000 .data
200000e8 l    d  .bss	00000000 .bss
00000000 l    d  .ARM.attributes	00000000 .ARM.attributes
00000000 l    d  .comment	00000000 .comment
00000000 l    d  .debug_frame	00000000 .debug_frame
00000000 l    df *ABS*	00000000 crtstuff.c
00000000 l     F .text	00000000 __do_global_dtors_aux
200000e8 l       .bss	00000001 completed.8911
00003650 l     O .text	00000000 __do_global_dtors_aux_fini_array_entry
00000028 l     F .text	00000000 frame_dummy
200000ec l       .bss	00000018 object.8916
0000360c l     O .text	00000000 __frame_dummy_init_array_entry
00000000 l    df *ABS*	00000000 
20000000 l     F .data	0000000c delay_usec.constprop.0
20000000 l       .data	00000000 mydelay
20000002 l       .data	00000000 mydelay1
00000048 l     F .text	00000034 _ZN4RF242ceEb.constprop.0
0000007c l     F .text	00000024 _ZN4RF2416beginTransactionEv.constprop.0
000000a0 l     F .text	00000024 _ZN4RF2414endTransactionEv.constprop.0
000000c4 l     F .text	00000048 _ZN6uart_t4getcEv
0000010c l     F .text	00000020 _ZN6uart_t5writeEc
0000012c l     F .text	00000024 _ZN6uart_t5printEPKci.constprop.0
00000150 l     F .text	00000050 _ZN6uart_t14sercom_handlerEv
000001a0 l     F .text	00000034 millis
000001d4 l     F .text	00000020 _ZN5spi_t8TransferEh
000001f4 l     F .text	00000028 _ZN4RF2413read_registerEh.constprop.0
0000021c l     F .text	0000003c _ZN4RF2414write_registerEhPKhh.constprop.0
00000258 l     F .text	00000030 _ZN4RF2414write_registerEhh.constprop.0
00000288 l     F .text	00000020 _ZN4RF247powerUpEv.constprop.0
000002a8 l     F .text	0000003c _ZN4RF2411setDataRateE15rf24_datarate_e.constprop.0
000002e4 l     F .text	00000020 _ZN4RF248spiTransEh.constprop.0
00000304 l     F .text	0000000a _ZN4RF248flush_txEv.constprop.0
0000030e l     F .text	00000042 _ZN4RF2413stopListeningEv.constprop.0
00000350 l     F .text	00000060 _ZN4RF2414startListeningEv.constprop.0
000003b0 l     F .text	0000009c _ZN4RF245writeEPKvhb.constprop.0
0000044c l     F .text	00000048 _ZN4gpio6pmuxenERK6gpio_th
2000000c l     F .data	00000020 _ZN3GSM15RAMFunc_wait_rxEv
2000002c l     F .data	00000016 _ZN3GSM13RAMFunc_writeEc
00000494 l     F .text	00000020 _ZNK3Str18is_using_local_bufEv
000004b4 l     F .text	0000002c _ZN6uart_t9availableEv
000004e0 l     F .text	000000e0 _ZN3GSM7CommandEPKcS1_j
000005c0 l     F .text	0000002c _ZN3GSM13RepeatCommandEPKcS1_ii
000005ec l     F .text	00000058 _ZN3GSM12InitInternetEv
00000644 l     F .text	0000001c _ZN9SensornetD2Ev
00000644 l     F .text	0000001c _ZN9SensornetD1Ev
00000660 l     F .text	00000020 _ZZ4mainENUlP3GSMPKcS2_E0_4_FUNES0_S2_S2_
00000680 l     F .text	00000012 _ZN3GSMD2Ev
00000680 l     F .text	00000012 _ZN3GSMD1Ev
00000692 l     F .text	0000001c _ZN3StrD2Ev
00000692 l     F .text	0000001c _ZN3StrD1Ev
000006ae l     F .text	0000006a _ZN3Str3setEPKc.constprop.0
00000718 l     F .text	00000044 _ZN6uart_t4readEv
0000075c l     F .text	0000008c _ZN9Sensornet10UpdateNodeERK12SensorPacket.constprop.0
000007e8 l     F .text	00000038 _ZN6VectorI7SMSFuncE9push_backERKS0_
00000820 l     F .text	0000019c _ZN9Sensornet4PollEv.constprop.0
000009bc l     F .text	00000064 _ZN3Str7reserveEi.part.0
00000a20 l     F .text	000000e0 _Z9UpdateRTCv
00000b00 l     F .text	0000006c _ZN3GSM11GetNumLevelEPKc
00000b6c l     F .text	00000068 _ZN3GSM7SendSMSEPKcS1_
00000bd4 l     F .text	00000078 _ZN3GSM15cmd_SetFTPCredsEPKcS1_
00000c4c l     F .text	0000004c _ZL9func_execP3GSMPKcS2_
00000c98 l     F .text	0000003c _ZL11func_delnumP3GSMPKcS2_
00000cd4 l     F .text	00000118 _ZZ4mainENUlP3GSMPKcS2_E_4_FUNES0_S2_S2_
00000dec l     F .text	000000f0 _ZN3GSM8SetupFTPEv
00000edc l     F .text	00000214 _ZL11func_updateP3GSMPKcS2_
000010f0 l     F .text	000000e0 _ZL11func_setnumP3GSMPKcS2_
000011d0 l     F .text	0000006a _ZN3Str7appendfEPKcz
0000123a l     F .text	000000b6 _ZL8cmd_infoP3GSMPKcS2_
000012f0 l     F .text	00000048 _ZL12func_listcmdP3GSMPKcS2_
00001338 l     F .text	000000bc _ZN3GSM9GetAllNumEP6VectorIPcE
000013f4 l     F .text	00000078 _ZL12func_listnumP3GSMPKcS2_
000016b4 l     F .text	00000150 _GLOBAL__I_65535_0_GSM.cpp.obj.9388
20000164 l     O .bss	0000020c g_uart0
20000370 l     O .bss	0000020c g_uart1
0000148c l     F .text	00000002 Dummy_Handler
0000148e l     F .text	0000000e SERCOM1_Handler
0000149c l     F .text	00000010 SERCOM0_Handler
000014ac l     F .text	0000001c SysTick_Handler
000014c8 l     F .text	00000018 RTC_Handler
20000048 l     O .data	00000027 _ZL6fsread
20000070 l     O .data	0000000a _ZL11subtractors
2000007c l     O .data	00000004 _ZL9rtc_count
20000108 l     O .bss	00000038 _ZL3net
20000140 l     O .bss	00000008 _cycles
20000148 l     O .bss	00000014 _ZL3gsm
2000015c l     O .bss	00000004 g_spi0
20000160 l     O .bss	00000004 heap.4639
00000000 l    df *ABS*	00000000 atexit_arm.cc
00000000 l    df *ABS*	00000000 atoi.c
00000000 l    df *ABS*	00000000 cxa_atexit.c
00000000 l    df *ABS*	00000000 init.c
00000000 l    df *ABS*	00000000 memset.c
00000000 l    df *ABS*	00000000 strtok.c
00000000 l    df *ABS*	00000000 strtok_r.c
00000000 l    df *ABS*	00000000 strtol.c
00002254 l     F .text	00000104 _strtol_l.isra.0
00000000 l    df *ABS*	00000000 malloc.c
00000000 l    df *ABS*	00000000 nano-mallocr.c
00000000 l    df *ABS*	00000000 nano-mallocr.c
00000000 l    df *ABS*	00000000 sbrkr.c
00000000 l    df *ABS*	00000000 mlock.c
00000000 l    df *ABS*	00000000 lock.c
00000000 l    df *ABS*	00000000 calloc.c
00000000 l    df *ABS*	00000000 memcpy-stub.c
00000000 l    df *ABS*	00000000 nano-mallocr.c
00000000 l    df *ABS*	00000000 realloc.c
00000000 l    df *ABS*	00000000 snprintf.c
00000000 l    df *ABS*	00000000 strcasecmp.c
00000000 l    df *ABS*	00000000 strchr.c
00000000 l    df *ABS*	00000000 lib_a-strcmp.o
00000000 l    df *ABS*	00000000 strcpy.c
00000000 l    df *ABS*	00000000 lib_a-strlen.o
00000000 l    df *ABS*	00000000 strncmp.c
00000000 l    df *ABS*	00000000 strncpy.c
00000000 l    df *ABS*	00000000 strstr.c
00000000 l    df *ABS*	00000000 vsnprintf.c
00000000 l    df *ABS*	00000000 nano-mallocr.c
00000000 l    df *ABS*	00000000 nano-vfprintf.c
00000000 l    df *ABS*	00000000 nano-vfprintf_i.c
00000000 l    df *ABS*	00000000 memchr-stub.c
00000000 l    df *ABS*	00000000 memmove.c
00000000 l    df *ABS*	00000000 nano-mallocr.c
00000000 l    df *ABS*	00000000 _udivsi3.o
00002db8 l       .text	00000000 .udivsi3_skip_div0_test
00000000 l    df *ABS*	00000000 _dvmd_tls.o
00000000 l    df *ABS*	00000000 libgcc2.c
00000000 l    df *ABS*	00000000 _thumb1_case_shi.o
00000000 l    df *ABS*	00000000 ctype_.c
00000000 l    df *ABS*	00000000 d:/desktop/desktop/arm-none-eabi/bin/../lib/gcc/arm-none-eabi/9.2.1/thumb/v6-m/nofp/crti.o
00000000 l    df *ABS*	00000000 d:/desktop/desktop/arm-none-eabi/bin/../lib/gcc/arm-none-eabi/9.2.1/thumb/v6-m/nofp/crtn.o
00000000 l    df *ABS*	00000000 impure.c
20000084 l     O .data	00000060 impure_data
00000000 l    df *ABS*	00000000 reent.c
00003620 l     F .text	00000010 ___ZN3GSM15RAMFunc_wait_rxEv_veneer
00003630 l     F .text	00000010 __delay_usec.constprop.0_veneer
00003640 l     F .text	00000010 ___ZN3GSM13RAMFunc_writeEc_veneer
00002da8 g     F .text	00000010 _malloc_usable_size_r
00002654 g     F .text	00000010 strcpy
0000148c g     F .text	00000002 DMAC_Handler
20000588 g     O .bss	00000001 __lock___atexit_recursive_mutex
0000148c g     F .text	00000002 HardFault_Handler
0000148c g     F .text	00000002 TC2_Handler
0000251c g     F .text	00000010 __malloc_unlock
0000148c g     F .text	00000002 AC_Handler
20000589 g     O .bss	00000001 __lock___arc4random_mutex
00002d82 g     F .text	00000026 memmove
0000148c g     F .text	00000002 PendSV_Handler
00002588 g     F .text	00000068 snprintf
0000148c g     F .text	00000002 NMI_Handler
000021f4 g     F .text	0000005e __strtok_r
00000000 g       .text	00000000 _sfixed
0000148c g     F .text	00000002 ADC_Handler
20000584 g     O .bss	00000004 errno
00003654 g       .data	00000000 _etext
20001000 g       .text	00000000 __top_ram
00002544 g     F .text	00000012 memcpy
00002868 g     F .text	00000200 _svfprintf_r
00003654 g       .text	00000000 __fini_array_end
0000148c g     F .text	00000002 TCC0_Handler
00002370 g     F .text	00000014 malloc
00002db8 g     F .text	0000010a .hidden __udivsi3
00002740 g     F .text	00000018 vsnprintf
20000044 g     O .data	00000000 .hidden __dso_handle
000024e8 g     F .text	00000024 _sbrk_r
0000148c g     F .text	00000002 EIC_Handler
0000148c g     F .text	00000002 WDT_Handler
2000058a g     O .bss	00000001 __lock___env_recursive_mutex
2000058b g     O .bss	00000001 __lock___sinit_recursive_mutex
00002ed0 g     F .text	00000050 .hidden __aeabi_lmul
00002758 g     F .text	0000004c _realloc_r
0000214c g     F .text	00000048 __libc_init_array
0000146e g     F .text	0000001e _sbrk
0000148c g     F .text	00000002 TC1_Handler
00003600 g     F .text	00000000 _init
00002358 g     F .text	00000018 strtol
00004000 g       .text	00000000 __top_flash
20000594 g       .bss	00000000 _ebss
000014e0 g     F .text	000001d4 Reset_Handler
00002740 g     F .text	00000018 vsniprintf
00002530 g     F .text	00000014 calloc
2000058c g     O .bss	00000001 __lock___malloc_recursive_mutex
20001000 g       *ABS*	00000000 _stack_top
00002588 g     F .text	00000068 sniprintf
0000252e g     F .text	00000002 __retarget_lock_release_recursive
000027a4 g     F .text	000000c4 __ssputs_r
00002d6c g     F .text	00000016 memchr
00002398 g     F .text	00000094 _free_r
00002f20 g     F .text	00000014 .hidden __gnu_thumb1_case_shi
200000e8 g       .bss	00000000 _bss
000026bc g     F .text	0000002c strstr
0000148c g     F .text	00000002 PM_Handler
00002672 g     F .text	00000022 strncmp
00002694 g     F .text	00000028 strncpy
000025f0 g     F .text	00000034 strcasecmp
00002574 g     F .text	00000014 realloc
00002130 g     F .text	0000001c __cxa_atexit
000021a4 g     F .text	00000050 strtok
00002ecc  w    F .text	00000002 .hidden __aeabi_ldiv0
000026e8 g     F .text	00000056 _vsnprintf_r
0000250c g     F .text	00000010 __malloc_lock
00003650 g       .text	00000000 __fini_array_start
00002556 g     F .text	0000001c _calloc_r
0000252c g     F .text	00000002 __retarget_lock_acquire_recursive
00002194 g     F .text	00000010 memset
00001804 g     F .text	00000910 main
00002db8 g     F .text	00000000 .hidden __aeabi_uidiv
0000148c g     F .text	00000002 SVC_Handler
0000148c g     F .text	00000002 EVSYS_Handler
00003614 g       .text	00000000 __init_array_end
0000242c g     F .text	000000bc _malloc_r
00002640 g     F .text	00000014 strcmp
0000148c g     F .text	00000002 NVMCTRL_Handler
00003614 g     F .text	00000000 _fini
00002a68 g     F .text	000000de _printf_common
20000080 g     O .data	00000004 _impure_ptr
0000360c g       .text	00000000 __preinit_array_end
00002868 g     F .text	00000200 _svfiprintf_r
20000000 g       .data	00000000 _data
0000148c g     F .text	00000002 DAC_Handler
000026e8 g     F .text	00000056 _vsniprintf_r
00002ec4 g     F .text	00000008 .hidden __aeabi_uidivmod
200000e4 g       .data	00000000 _edata
20000594 g       .bss	00000000 _end
2000058d g     O .bss	00000001 __lock___at_quick_exit_mutex
0000148c g     F .text	00000002 PTC_Handler
00002122 g     F .text	0000000c atoi
000034c9 g     O .text	00000101 _ctype_
00002ecc  w    F .text	00000002 .hidden __aeabi_idiv0
0000360c g       .text	00000000 __init_array_start
0000146c g     F .text	00000002 _exit
00002ed0 g     F .text	00000050 .hidden __muldi3
2000058e g     O .bss	00000001 __lock___dd_hash_mutex
2000058f g     O .bss	00000001 __lock___tz_mutex
00002664 g     F .text	0000000e strlen
00002b48 g     F .text	00000224 _printf_i
20000580 g     O .bss	00000004 __malloc_sbrk_start
00002624 g     F .text	0000001c strchr
2000057c g     O .bss	00000004 __malloc_free_list
0000360c g       .text	00000000 __preinit_array_start
00002114 g     F .text	0000000e __aeabi_atexit
20000590 g     O .bss	00000001 __lock___sfp_recursive_mutex
00002384 g     F .text	00000014 free
0000148c g     F .text	00000002 SYSCTRL_Handler



Disassembly of section .text:

00000000 <__do_global_dtors_aux>:
       0:	b510      	push	{r4, lr}
       2:	4c06      	ldr	r4, [pc, #24]	; (1c <__do_global_dtors_aux+0x1c>)
       4:	7823      	ldrb	r3, [r4, #0]
       6:	2b00      	cmp	r3, #0
       8:	d107      	bne.n	1a <__do_global_dtors_aux+0x1a>
       a:	4b05      	ldr	r3, [pc, #20]	; (20 <__do_global_dtors_aux+0x20>)
       c:	2b00      	cmp	r3, #0
       e:	d002      	beq.n	16 <__do_global_dtors_aux+0x16>
      10:	4804      	ldr	r0, [pc, #16]	; (24 <__do_global_dtors_aux+0x24>)
      12:	e000      	b.n	16 <__do_global_dtors_aux+0x16>
      14:	bf00      	nop
      16:	2301      	movs	r3, #1
      18:	7023      	strb	r3, [r4, #0]
      1a:	bd10      	pop	{r4, pc}
      1c:	200000e8 	.word	0x200000e8
      20:	00000000 	.word	0x00000000
      24:	00003654 	.word	0x00003654

00000028 <frame_dummy>:
      28:	4b04      	ldr	r3, [pc, #16]	; (3c <frame_dummy+0x14>)
      2a:	b510      	push	{r4, lr}
      2c:	2b00      	cmp	r3, #0
      2e:	d003      	beq.n	38 <frame_dummy+0x10>
      30:	4903      	ldr	r1, [pc, #12]	; (40 <frame_dummy+0x18>)
      32:	4804      	ldr	r0, [pc, #16]	; (44 <frame_dummy+0x1c>)
      34:	e000      	b.n	38 <frame_dummy+0x10>
      36:	bf00      	nop
      38:	bd10      	pop	{r4, pc}
      3a:	46c0      	nop			; (mov r8, r8)
      3c:	00000000 	.word	0x00000000
      40:	200000ec 	.word	0x200000ec
      44:	00003654 	.word	0x00003654

00000048 <_ZN4RF242ceEb.constprop.0>:
      48:	4a0a      	ldr	r2, [pc, #40]	; (74 <_ZN4RF242ceEb.constprop.0+0x2c>)
      4a:	b510      	push	{r4, lr}
      4c:	6853      	ldr	r3, [r2, #4]
      4e:	68d4      	ldr	r4, [r2, #12]
      50:	6891      	ldr	r1, [r2, #8]
      52:	42a3      	cmp	r3, r4
      54:	d102      	bne.n	5c <_ZN4RF242ceEb.constprop.0+0x14>
      56:	6912      	ldr	r2, [r2, #16]
      58:	4291      	cmp	r1, r2
      5a:	d007      	beq.n	6c <_ZN4RF242ceEb.constprop.0+0x24>
      5c:	2201      	movs	r2, #1
      5e:	408a      	lsls	r2, r1
      60:	4905      	ldr	r1, [pc, #20]	; (78 <_ZN4RF242ceEb.constprop.0+0x30>)
      62:	01db      	lsls	r3, r3, #7
      64:	185b      	adds	r3, r3, r1
      66:	2800      	cmp	r0, #0
      68:	d001      	beq.n	6e <_ZN4RF242ceEb.constprop.0+0x26>
      6a:	619a      	str	r2, [r3, #24]
      6c:	bd10      	pop	{r4, pc}
      6e:	615a      	str	r2, [r3, #20]
      70:	e7fc      	b.n	6c <_ZN4RF242ceEb.constprop.0+0x24>
      72:	46c0      	nop			; (mov r8, r8)
      74:	20000108 	.word	0x20000108
      78:	41004400 	.word	0x41004400

0000007c <_ZN4RF2416beginTransactionEv.constprop.0>:
      7c:	4a06      	ldr	r2, [pc, #24]	; (98 <_ZN4RF2416beginTransactionEv.constprop.0+0x1c>)
      7e:	b510      	push	{r4, lr}
      80:	6911      	ldr	r1, [r2, #16]
      82:	68d3      	ldr	r3, [r2, #12]
      84:	2201      	movs	r2, #1
      86:	408a      	lsls	r2, r1
      88:	4904      	ldr	r1, [pc, #16]	; (9c <_ZN4RF2416beginTransactionEv.constprop.0+0x20>)
      8a:	01db      	lsls	r3, r3, #7
      8c:	185b      	adds	r3, r3, r1
      8e:	615a      	str	r2, [r3, #20]
      90:	f003 face 	bl	3630 <__delay_usec.constprop.0_veneer>
      94:	bd10      	pop	{r4, pc}
      96:	46c0      	nop			; (mov r8, r8)
      98:	20000108 	.word	0x20000108
      9c:	41004400 	.word	0x41004400

000000a0 <_ZN4RF2414endTransactionEv.constprop.0>:
      a0:	4a06      	ldr	r2, [pc, #24]	; (bc <_ZN4RF2414endTransactionEv.constprop.0+0x1c>)
      a2:	b510      	push	{r4, lr}
      a4:	6911      	ldr	r1, [r2, #16]
      a6:	68d3      	ldr	r3, [r2, #12]
      a8:	2201      	movs	r2, #1
      aa:	408a      	lsls	r2, r1
      ac:	4904      	ldr	r1, [pc, #16]	; (c0 <_ZN4RF2414endTransactionEv.constprop.0+0x20>)
      ae:	01db      	lsls	r3, r3, #7
      b0:	185b      	adds	r3, r3, r1
      b2:	619a      	str	r2, [r3, #24]
      b4:	f003 fabc 	bl	3630 <__delay_usec.constprop.0_veneer>
      b8:	bd10      	pop	{r4, pc}
      ba:	46c0      	nop			; (mov r8, r8)
      bc:	20000108 	.word	0x20000108
      c0:	41004400 	.word	0x41004400

000000c4 <_ZN6uart_t4getcEv>:
      c4:	b530      	push	{r4, r5, lr}
      c6:	4a0f      	ldr	r2, [pc, #60]	; (104 <_ZN6uart_t4getcEv+0x40>)
      c8:	0003      	movs	r3, r0
      ca:	5c82      	ldrb	r2, [r0, r2]
      cc:	1e10      	subs	r0, r2, #0
      ce:	d018      	beq.n	102 <_ZN6uart_t4getcEv+0x3e>
      d0:	2581      	movs	r5, #129	; 0x81
      d2:	2480      	movs	r4, #128	; 0x80
      d4:	490c      	ldr	r1, [pc, #48]	; (108 <_ZN6uart_t4getcEv+0x44>)
      d6:	00ad      	lsls	r5, r5, #2
      d8:	00a4      	lsls	r4, r4, #2
      da:	5d5a      	ldrb	r2, [r3, r5]
      dc:	2a00      	cmp	r2, #0
      de:	d103      	bne.n	e8 <_ZN6uart_t4getcEv+0x24>
      e0:	5b18      	ldrh	r0, [r3, r4]
      e2:	5a5a      	ldrh	r2, [r3, r1]
      e4:	4290      	cmp	r0, r2
      e6:	d0f8      	beq.n	da <_ZN6uart_t4getcEv+0x16>
      e8:	5a5a      	ldrh	r2, [r3, r1]
      ea:	2400      	movs	r4, #0
      ec:	b292      	uxth	r2, r2
      ee:	5c98      	ldrb	r0, [r3, r2]
      f0:	2281      	movs	r2, #129	; 0x81
      f2:	0092      	lsls	r2, r2, #2
      f4:	549c      	strb	r4, [r3, r2]
      f6:	5a5a      	ldrh	r2, [r3, r1]
      f8:	b2c0      	uxtb	r0, r0
      fa:	3201      	adds	r2, #1
      fc:	05d2      	lsls	r2, r2, #23
      fe:	0dd2      	lsrs	r2, r2, #23
     100:	525a      	strh	r2, [r3, r1]
     102:	bd30      	pop	{r4, r5, pc}
     104:	00000205 	.word	0x00000205
     108:	00000202 	.word	0x00000202

0000010c <_ZN6uart_t5writeEc>:
     10c:	4b06      	ldr	r3, [pc, #24]	; (128 <_ZN6uart_t5writeEc+0x1c>)
     10e:	5cc3      	ldrb	r3, [r0, r3]
     110:	2b00      	cmp	r3, #0
     112:	d008      	beq.n	126 <_ZN6uart_t5writeEc+0x1a>
     114:	2382      	movs	r3, #130	; 0x82
     116:	009b      	lsls	r3, r3, #2
     118:	58c2      	ldr	r2, [r0, r3]
     11a:	b289      	uxth	r1, r1
     11c:	8511      	strh	r1, [r2, #40]	; 0x28
     11e:	58c2      	ldr	r2, [r0, r3]
     120:	7e13      	ldrb	r3, [r2, #24]
     122:	07db      	lsls	r3, r3, #31
     124:	d5fc      	bpl.n	120 <_ZN6uart_t5writeEc+0x14>
     126:	4770      	bx	lr
     128:	00000205 	.word	0x00000205

0000012c <_ZN6uart_t5printEPKci.constprop.0>:
     12c:	b570      	push	{r4, r5, r6, lr}
     12e:	4b07      	ldr	r3, [pc, #28]	; (14c <_ZN6uart_t5printEPKci.constprop.0+0x20>)
     130:	0005      	movs	r5, r0
     132:	5cc3      	ldrb	r3, [r0, r3]
     134:	000c      	movs	r4, r1
     136:	2b00      	cmp	r3, #0
     138:	d007      	beq.n	14a <_ZN6uart_t5printEPKci.constprop.0+0x1e>
     13a:	7821      	ldrb	r1, [r4, #0]
     13c:	2900      	cmp	r1, #0
     13e:	d004      	beq.n	14a <_ZN6uart_t5printEPKci.constprop.0+0x1e>
     140:	0028      	movs	r0, r5
     142:	3401      	adds	r4, #1
     144:	f7ff ffe2 	bl	10c <_ZN6uart_t5writeEc>
     148:	e7f7      	b.n	13a <_ZN6uart_t5printEPKci.constprop.0+0xe>
     14a:	bd70      	pop	{r4, r5, r6, pc}
     14c:	00000205 	.word	0x00000205

00000150 <_ZN6uart_t14sercom_handlerEv>:
     150:	4b11      	ldr	r3, [pc, #68]	; (198 <_ZN6uart_t14sercom_handlerEv+0x48>)
     152:	b510      	push	{r4, lr}
     154:	5cc3      	ldrb	r3, [r0, r3]
     156:	2b00      	cmp	r3, #0
     158:	d01b      	beq.n	192 <_ZN6uart_t14sercom_handlerEv+0x42>
     15a:	2281      	movs	r2, #129	; 0x81
     15c:	2382      	movs	r3, #130	; 0x82
     15e:	0092      	lsls	r2, r2, #2
     160:	5c81      	ldrb	r1, [r0, r2]
     162:	009b      	lsls	r3, r3, #2
     164:	58c3      	ldr	r3, [r0, r3]
     166:	2900      	cmp	r1, #0
     168:	d114      	bne.n	194 <_ZN6uart_t14sercom_handlerEv+0x44>
     16a:	2180      	movs	r1, #128	; 0x80
     16c:	0089      	lsls	r1, r1, #2
     16e:	8d1c      	ldrh	r4, [r3, #40]	; 0x28
     170:	5a43      	ldrh	r3, [r0, r1]
     172:	b2e4      	uxtb	r4, r4
     174:	b29b      	uxth	r3, r3
     176:	54c4      	strb	r4, [r0, r3]
     178:	5a43      	ldrh	r3, [r0, r1]
     17a:	3301      	adds	r3, #1
     17c:	05db      	lsls	r3, r3, #23
     17e:	0ddb      	lsrs	r3, r3, #23
     180:	5243      	strh	r3, [r0, r1]
     182:	4b06      	ldr	r3, [pc, #24]	; (19c <_ZN6uart_t14sercom_handlerEv+0x4c>)
     184:	5ac3      	ldrh	r3, [r0, r3]
     186:	5a41      	ldrh	r1, [r0, r1]
     188:	1a5b      	subs	r3, r3, r1
     18a:	4259      	negs	r1, r3
     18c:	414b      	adcs	r3, r1
     18e:	b2db      	uxtb	r3, r3
     190:	5483      	strb	r3, [r0, r2]
     192:	bd10      	pop	{r4, pc}
     194:	8d1b      	ldrh	r3, [r3, #40]	; 0x28
     196:	e7fc      	b.n	192 <_ZN6uart_t14sercom_handlerEv+0x42>
     198:	00000205 	.word	0x00000205
     19c:	00000202 	.word	0x00000202

000001a0 <millis>:
     1a0:	2100      	movs	r1, #0
     1a2:	4b08      	ldr	r3, [pc, #32]	; (1c4 <millis+0x24>)
     1a4:	b570      	push	{r4, r5, r6, lr}
     1a6:	689c      	ldr	r4, [r3, #8]
     1a8:	4d07      	ldr	r5, [pc, #28]	; (1c8 <millis+0x28>)
     1aa:	4b08      	ldr	r3, [pc, #32]	; (1cc <millis+0x2c>)
     1ac:	1b28      	subs	r0, r5, r4
     1ae:	6b9a      	ldr	r2, [r3, #56]	; 0x38
     1b0:	6bdb      	ldr	r3, [r3, #60]	; 0x3c
     1b2:	1880      	adds	r0, r0, r2
     1b4:	4159      	adcs	r1, r3
     1b6:	2300      	movs	r3, #0
     1b8:	4a05      	ldr	r2, [pc, #20]	; (1d0 <millis+0x30>)
     1ba:	f002 fe89 	bl	2ed0 <__aeabi_lmul>
     1be:	08c8      	lsrs	r0, r1, #3
     1c0:	bd70      	pop	{r4, r5, r6, pc}
     1c2:	46c0      	nop			; (mov r8, r8)
     1c4:	e000e010 	.word	0xe000e010
     1c8:	00ffffff 	.word	0x00ffffff
     1cc:	20000108 	.word	0x20000108
     1d0:	000aec34 	.word	0x000aec34

000001d4 <_ZN5spi_t8TransferEh>:
     1d4:	6802      	ldr	r2, [r0, #0]
     1d6:	0003      	movs	r3, r0
     1d8:	20ff      	movs	r0, #255	; 0xff
     1da:	2a00      	cmp	r2, #0
     1dc:	d009      	beq.n	1f2 <_ZN5spi_t8TransferEh+0x1e>
     1de:	7e10      	ldrb	r0, [r2, #24]
     1e0:	07c0      	lsls	r0, r0, #31
     1e2:	d5fc      	bpl.n	1de <_ZN5spi_t8TransferEh+0xa>
     1e4:	6291      	str	r1, [r2, #40]	; 0x28
     1e6:	681b      	ldr	r3, [r3, #0]
     1e8:	7e1a      	ldrb	r2, [r3, #24]
     1ea:	0752      	lsls	r2, r2, #29
     1ec:	d5fc      	bpl.n	1e8 <_ZN5spi_t8TransferEh+0x14>
     1ee:	6a98      	ldr	r0, [r3, #40]	; 0x28
     1f0:	b2c0      	uxtb	r0, r0
     1f2:	4770      	bx	lr

000001f4 <_ZN4RF2413read_registerEh.constprop.0>:
     1f4:	b570      	push	{r4, r5, r6, lr}
     1f6:	0004      	movs	r4, r0
     1f8:	f7ff ff40 	bl	7c <_ZN4RF2416beginTransactionEv.constprop.0>
     1fc:	4d06      	ldr	r5, [pc, #24]	; (218 <_ZN4RF2413read_registerEh.constprop.0+0x24>)
     1fe:	0021      	movs	r1, r4
     200:	6828      	ldr	r0, [r5, #0]
     202:	f7ff ffe7 	bl	1d4 <_ZN5spi_t8TransferEh>
     206:	21ff      	movs	r1, #255	; 0xff
     208:	6828      	ldr	r0, [r5, #0]
     20a:	f7ff ffe3 	bl	1d4 <_ZN5spi_t8TransferEh>
     20e:	0004      	movs	r4, r0
     210:	f7ff ff46 	bl	a0 <_ZN4RF2414endTransactionEv.constprop.0>
     214:	0020      	movs	r0, r4
     216:	bd70      	pop	{r4, r5, r6, pc}
     218:	20000108 	.word	0x20000108

0000021c <_ZN4RF2414write_registerEhPKhh.constprop.0>:
     21c:	b5f8      	push	{r3, r4, r5, r6, r7, lr}
     21e:	0006      	movs	r6, r0
     220:	000c      	movs	r4, r1
     222:	0015      	movs	r5, r2
     224:	f7ff ff2a 	bl	7c <_ZN4RF2416beginTransactionEv.constprop.0>
     228:	211f      	movs	r1, #31
     22a:	4f0a      	ldr	r7, [pc, #40]	; (254 <_ZN4RF2414write_registerEhPKhh.constprop.0+0x38>)
     22c:	400e      	ands	r6, r1
     22e:	3101      	adds	r1, #1
     230:	4331      	orrs	r1, r6
     232:	6838      	ldr	r0, [r7, #0]
     234:	f7ff ffce 	bl	1d4 <_ZN5spi_t8TransferEh>
     238:	0006      	movs	r6, r0
     23a:	1965      	adds	r5, r4, r5
     23c:	42ac      	cmp	r4, r5
     23e:	d005      	beq.n	24c <_ZN4RF2414write_registerEhPKhh.constprop.0+0x30>
     240:	7821      	ldrb	r1, [r4, #0]
     242:	6838      	ldr	r0, [r7, #0]
     244:	f7ff ffc6 	bl	1d4 <_ZN5spi_t8TransferEh>
     248:	3401      	adds	r4, #1
     24a:	e7f7      	b.n	23c <_ZN4RF2414write_registerEhPKhh.constprop.0+0x20>
     24c:	f7ff ff28 	bl	a0 <_ZN4RF2414endTransactionEv.constprop.0>
     250:	0030      	movs	r0, r6
     252:	bdf8      	pop	{r3, r4, r5, r6, r7, pc}
     254:	20000108 	.word	0x20000108

00000258 <_ZN4RF2414write_registerEhh.constprop.0>:
     258:	b570      	push	{r4, r5, r6, lr}
     25a:	000d      	movs	r5, r1
     25c:	0004      	movs	r4, r0
     25e:	f7ff ff0d 	bl	7c <_ZN4RF2416beginTransactionEv.constprop.0>
     262:	211f      	movs	r1, #31
     264:	4e07      	ldr	r6, [pc, #28]	; (284 <_ZN4RF2414write_registerEhh.constprop.0+0x2c>)
     266:	400c      	ands	r4, r1
     268:	3101      	adds	r1, #1
     26a:	6830      	ldr	r0, [r6, #0]
     26c:	4321      	orrs	r1, r4
     26e:	f7ff ffb1 	bl	1d4 <_ZN5spi_t8TransferEh>
     272:	0004      	movs	r4, r0
     274:	0029      	movs	r1, r5
     276:	6830      	ldr	r0, [r6, #0]
     278:	f7ff ffac 	bl	1d4 <_ZN5spi_t8TransferEh>
     27c:	f7ff ff10 	bl	a0 <_ZN4RF2414endTransactionEv.constprop.0>
     280:	0020      	movs	r0, r4
     282:	bd70      	pop	{r4, r5, r6, pc}
     284:	20000108 	.word	0x20000108

00000288 <_ZN4RF247powerUpEv.constprop.0>:
     288:	2000      	movs	r0, #0
     28a:	b510      	push	{r4, lr}
     28c:	f7ff ffb2 	bl	1f4 <_ZN4RF2413read_registerEh.constprop.0>
     290:	2102      	movs	r1, #2
     292:	0003      	movs	r3, r0
     294:	4008      	ands	r0, r1
     296:	420b      	tst	r3, r1
     298:	d105      	bne.n	2a6 <_ZN4RF247powerUpEv.constprop.0+0x1e>
     29a:	4319      	orrs	r1, r3
     29c:	b2c9      	uxtb	r1, r1
     29e:	f7ff ffdb 	bl	258 <_ZN4RF2414write_registerEhh.constprop.0>
     2a2:	f003 f9c5 	bl	3630 <__delay_usec.constprop.0_veneer>
     2a6:	bd10      	pop	{r4, pc}

000002a8 <_ZN4RF2411setDataRateE15rf24_datarate_e.constprop.0>:
     2a8:	b570      	push	{r4, r5, r6, lr}
     2aa:	0005      	movs	r5, r0
     2ac:	2006      	movs	r0, #6
     2ae:	f7ff ffa1 	bl	1f4 <_ZN4RF2413read_registerEh.constprop.0>
     2b2:	24d7      	movs	r4, #215	; 0xd7
     2b4:	22fa      	movs	r2, #250	; 0xfa
     2b6:	4b0a      	ldr	r3, [pc, #40]	; (2e0 <_ZN4RF2411setDataRateE15rf24_datarate_e.constprop.0+0x38>)
     2b8:	4004      	ands	r4, r0
     2ba:	2d02      	cmp	r5, #2
     2bc:	d103      	bne.n	2c6 <_ZN4RF2411setDataRateE15rf24_datarate_e.constprop.0+0x1e>
     2be:	2220      	movs	r2, #32
     2c0:	4314      	orrs	r4, r2
     2c2:	32a3      	adds	r2, #163	; 0xa3
     2c4:	32ff      	adds	r2, #255	; 0xff
     2c6:	0021      	movs	r1, r4
     2c8:	621a      	str	r2, [r3, #32]
     2ca:	2006      	movs	r0, #6
     2cc:	f7ff ffc4 	bl	258 <_ZN4RF2414write_registerEhh.constprop.0>
     2d0:	2006      	movs	r0, #6
     2d2:	f7ff ff8f 	bl	1f4 <_ZN4RF2413read_registerEh.constprop.0>
     2d6:	1a20      	subs	r0, r4, r0
     2d8:	4244      	negs	r4, r0
     2da:	4160      	adcs	r0, r4
     2dc:	b2c0      	uxtb	r0, r0
     2de:	bd70      	pop	{r4, r5, r6, pc}
     2e0:	20000108 	.word	0x20000108

000002e4 <_ZN4RF248spiTransEh.constprop.0>:
     2e4:	b510      	push	{r4, lr}
     2e6:	0004      	movs	r4, r0
     2e8:	f7ff fec8 	bl	7c <_ZN4RF2416beginTransactionEv.constprop.0>
     2ec:	4b04      	ldr	r3, [pc, #16]	; (300 <_ZN4RF248spiTransEh.constprop.0+0x1c>)
     2ee:	0021      	movs	r1, r4
     2f0:	6818      	ldr	r0, [r3, #0]
     2f2:	f7ff ff6f 	bl	1d4 <_ZN5spi_t8TransferEh>
     2f6:	0004      	movs	r4, r0
     2f8:	f7ff fed2 	bl	a0 <_ZN4RF2414endTransactionEv.constprop.0>
     2fc:	0020      	movs	r0, r4
     2fe:	bd10      	pop	{r4, pc}
     300:	20000108 	.word	0x20000108

00000304 <_ZN4RF248flush_txEv.constprop.0>:
     304:	b510      	push	{r4, lr}
     306:	20e1      	movs	r0, #225	; 0xe1
     308:	f7ff ffec 	bl	2e4 <_ZN4RF248spiTransEh.constprop.0>
     30c:	bd10      	pop	{r4, pc}

0000030e <_ZN4RF2413stopListeningEv.constprop.0>:
     30e:	2000      	movs	r0, #0
     310:	b510      	push	{r4, lr}
     312:	f7ff fe99 	bl	48 <_ZN4RF242ceEb.constprop.0>
     316:	f003 f98b 	bl	3630 <__delay_usec.constprop.0_veneer>
     31a:	201d      	movs	r0, #29
     31c:	f7ff ff6a 	bl	1f4 <_ZN4RF2413read_registerEh.constprop.0>
     320:	0783      	lsls	r3, r0, #30
     322:	d503      	bpl.n	32c <_ZN4RF2413stopListeningEv.constprop.0+0x1e>
     324:	f003 f984 	bl	3630 <__delay_usec.constprop.0_veneer>
     328:	f7ff ffec 	bl	304 <_ZN4RF248flush_txEv.constprop.0>
     32c:	2000      	movs	r0, #0
     32e:	f7ff ff61 	bl	1f4 <_ZN4RF2413read_registerEh.constprop.0>
     332:	2401      	movs	r4, #1
     334:	43a0      	bics	r0, r4
     336:	b2c1      	uxtb	r1, r0
     338:	2000      	movs	r0, #0
     33a:	f7ff ff8d 	bl	258 <_ZN4RF2414write_registerEhh.constprop.0>
     33e:	2002      	movs	r0, #2
     340:	f7ff ff58 	bl	1f4 <_ZN4RF2413read_registerEh.constprop.0>
     344:	4304      	orrs	r4, r0
     346:	b2e1      	uxtb	r1, r4
     348:	2002      	movs	r0, #2
     34a:	f7ff ff85 	bl	258 <_ZN4RF2414write_registerEhh.constprop.0>
     34e:	bd10      	pop	{r4, pc}

00000350 <_ZN4RF2414startListeningEv.constprop.0>:
     350:	b510      	push	{r4, lr}
     352:	f7ff ff99 	bl	288 <_ZN4RF247powerUpEv.constprop.0>
     356:	2000      	movs	r0, #0
     358:	f7ff ff4c 	bl	1f4 <_ZN4RF2413read_registerEh.constprop.0>
     35c:	2401      	movs	r4, #1
     35e:	4320      	orrs	r0, r4
     360:	b2c1      	uxtb	r1, r0
     362:	2000      	movs	r0, #0
     364:	f7ff ff78 	bl	258 <_ZN4RF2414write_registerEhh.constprop.0>
     368:	2170      	movs	r1, #112	; 0x70
     36a:	2007      	movs	r0, #7
     36c:	f7ff ff74 	bl	258 <_ZN4RF2414write_registerEhh.constprop.0>
     370:	0020      	movs	r0, r4
     372:	f7ff fe69 	bl	48 <_ZN4RF242ceEb.constprop.0>
     376:	490d      	ldr	r1, [pc, #52]	; (3ac <_ZN4RF2414startListeningEv.constprop.0+0x5c>)
     378:	7e4b      	ldrb	r3, [r1, #25]
     37a:	2b00      	cmp	r3, #0
     37c:	d00c      	beq.n	398 <_ZN4RF2414startListeningEv.constprop.0+0x48>
     37e:	7f8a      	ldrb	r2, [r1, #30]
     380:	200a      	movs	r0, #10
     382:	3119      	adds	r1, #25
     384:	f7ff ff4a 	bl	21c <_ZN4RF2414write_registerEhPKhh.constprop.0>
     388:	201d      	movs	r0, #29
     38a:	f7ff ff33 	bl	1f4 <_ZN4RF2413read_registerEh.constprop.0>
     38e:	0783      	lsls	r3, r0, #30
     390:	d501      	bpl.n	396 <_ZN4RF2414startListeningEv.constprop.0+0x46>
     392:	f7ff ffb7 	bl	304 <_ZN4RF248flush_txEv.constprop.0>
     396:	bd10      	pop	{r4, pc}
     398:	2002      	movs	r0, #2
     39a:	f7ff ff2b 	bl	1f4 <_ZN4RF2413read_registerEh.constprop.0>
     39e:	43a0      	bics	r0, r4
     3a0:	b2c1      	uxtb	r1, r0
     3a2:	2002      	movs	r0, #2
     3a4:	f7ff ff58 	bl	258 <_ZN4RF2414write_registerEhh.constprop.0>
     3a8:	e7ee      	b.n	388 <_ZN4RF2414startListeningEv.constprop.0+0x38>
     3aa:	46c0      	nop			; (mov r8, r8)
     3ac:	20000108 	.word	0x20000108

000003b0 <_ZN4RF245writeEPKvhb.constprop.0>:
     3b0:	b5f8      	push	{r3, r4, r5, r6, r7, lr}
     3b2:	4e25      	ldr	r6, [pc, #148]	; (448 <_ZN4RF245writeEPKvhb.constprop.0+0x98>)
     3b4:	0004      	movs	r4, r0
     3b6:	7df3      	ldrb	r3, [r6, #23]
     3b8:	1c1d      	adds	r5, r3, #0
     3ba:	2b20      	cmp	r3, #32
     3bc:	d900      	bls.n	3c0 <_ZN4RF245writeEPKvhb.constprop.0+0x10>
     3be:	2520      	movs	r5, #32
     3c0:	2700      	movs	r7, #0
     3c2:	7e32      	ldrb	r2, [r6, #24]
     3c4:	b2ed      	uxtb	r5, r5
     3c6:	42ba      	cmp	r2, r7
     3c8:	d101      	bne.n	3ce <_ZN4RF245writeEPKvhb.constprop.0+0x1e>
     3ca:	1b5f      	subs	r7, r3, r5
     3cc:	b2ff      	uxtb	r7, r7
     3ce:	f7ff fe55 	bl	7c <_ZN4RF2416beginTransactionEv.constprop.0>
     3d2:	21a0      	movs	r1, #160	; 0xa0
     3d4:	6830      	ldr	r0, [r6, #0]
     3d6:	f7ff fefd 	bl	1d4 <_ZN5spi_t8TransferEh>
     3da:	1965      	adds	r5, r4, r5
     3dc:	42a5      	cmp	r5, r4
     3de:	d005      	beq.n	3ec <_ZN4RF245writeEPKvhb.constprop.0+0x3c>
     3e0:	7821      	ldrb	r1, [r4, #0]
     3e2:	6830      	ldr	r0, [r6, #0]
     3e4:	f7ff fef6 	bl	1d4 <_ZN5spi_t8TransferEh>
     3e8:	3401      	adds	r4, #1
     3ea:	e7f7      	b.n	3dc <_ZN4RF245writeEPKvhb.constprop.0+0x2c>
     3ec:	3f01      	subs	r7, #1
     3ee:	b2ff      	uxtb	r7, r7
     3f0:	2fff      	cmp	r7, #255	; 0xff
     3f2:	d004      	beq.n	3fe <_ZN4RF245writeEPKvhb.constprop.0+0x4e>
     3f4:	2100      	movs	r1, #0
     3f6:	6830      	ldr	r0, [r6, #0]
     3f8:	f7ff feec 	bl	1d4 <_ZN5spi_t8TransferEh>
     3fc:	e7f6      	b.n	3ec <_ZN4RF245writeEPKvhb.constprop.0+0x3c>
     3fe:	f7ff fe4f 	bl	a0 <_ZN4RF2414endTransactionEv.constprop.0>
     402:	2001      	movs	r0, #1
     404:	f7ff fe20 	bl	48 <_ZN4RF242ceEb.constprop.0>
     408:	f7ff feca 	bl	1a0 <millis>
     40c:	2730      	movs	r7, #48	; 0x30
     40e:	0005      	movs	r5, r0
     410:	20ff      	movs	r0, #255	; 0xff
     412:	f7ff ff67 	bl	2e4 <_ZN4RF248spiTransEh.constprop.0>
     416:	4238      	tst	r0, r7
     418:	d108      	bne.n	42c <_ZN4RF245writeEPKvhb.constprop.0+0x7c>
     41a:	f7ff fec1 	bl	1a0 <millis>
     41e:	1b40      	subs	r0, r0, r5
     420:	285f      	cmp	r0, #95	; 0x5f
     422:	d9f5      	bls.n	410 <_ZN4RF245writeEPKvhb.constprop.0+0x60>
     424:	2301      	movs	r3, #1
     426:	77f3      	strb	r3, [r6, #31]
     428:	2000      	movs	r0, #0
     42a:	bdf8      	pop	{r3, r4, r5, r6, r7, pc}
     42c:	2000      	movs	r0, #0
     42e:	f7ff fe0b 	bl	48 <_ZN4RF242ceEb.constprop.0>
     432:	2170      	movs	r1, #112	; 0x70
     434:	2007      	movs	r0, #7
     436:	f7ff ff0f 	bl	258 <_ZN4RF2414write_registerEhh.constprop.0>
     43a:	0003      	movs	r3, r0
     43c:	2001      	movs	r0, #1
     43e:	06db      	lsls	r3, r3, #27
     440:	d5f3      	bpl.n	42a <_ZN4RF245writeEPKvhb.constprop.0+0x7a>
     442:	f7ff ff5f 	bl	304 <_ZN4RF248flush_txEv.constprop.0>
     446:	e7ef      	b.n	428 <_ZN4RF245writeEPKvhb.constprop.0+0x78>
     448:	20000108 	.word	0x20000108

0000044c <_ZN4gpio6pmuxenERK6gpio_th>:
     44c:	0003      	movs	r3, r0
     44e:	b530      	push	{r4, r5, lr}
     450:	cb05      	ldmia	r3!, {r0, r2}
     452:	250f      	movs	r5, #15
     454:	0fd3      	lsrs	r3, r2, #31
     456:	189b      	adds	r3, r3, r2
     458:	4c0c      	ldr	r4, [pc, #48]	; (48c <_ZN4gpio6pmuxenERK6gpio_th+0x40>)
     45a:	105b      	asrs	r3, r3, #1
     45c:	01c0      	lsls	r0, r0, #7
     45e:	181b      	adds	r3, r3, r0
     460:	4029      	ands	r1, r5
     462:	191b      	adds	r3, r3, r4
     464:	07d4      	lsls	r4, r2, #31
     466:	d50c      	bpl.n	482 <_ZN4gpio6pmuxenERK6gpio_th+0x36>
     468:	781c      	ldrb	r4, [r3, #0]
     46a:	0109      	lsls	r1, r1, #4
     46c:	4025      	ands	r5, r4
     46e:	4329      	orrs	r1, r5
     470:	7019      	strb	r1, [r3, #0]
     472:	4b07      	ldr	r3, [pc, #28]	; (490 <_ZN4gpio6pmuxenERK6gpio_th+0x44>)
     474:	1812      	adds	r2, r2, r0
     476:	18d2      	adds	r2, r2, r3
     478:	2301      	movs	r3, #1
     47a:	7811      	ldrb	r1, [r2, #0]
     47c:	430b      	orrs	r3, r1
     47e:	7013      	strb	r3, [r2, #0]
     480:	bd30      	pop	{r4, r5, pc}
     482:	781c      	ldrb	r4, [r3, #0]
     484:	43ac      	bics	r4, r5
     486:	4321      	orrs	r1, r4
     488:	e7f2      	b.n	470 <_ZN4gpio6pmuxenERK6gpio_th+0x24>
     48a:	46c0      	nop			; (mov r8, r8)
     48c:	41004430 	.word	0x41004430
     490:	41004440 	.word	0x41004440

00000494 <_ZNK3Str18is_using_local_bufEv>:
     494:	0003      	movs	r3, r0
     496:	0002      	movs	r2, r0
     498:	6819      	ldr	r1, [r3, #0]
     49a:	3208      	adds	r2, #8
     49c:	2000      	movs	r0, #0
     49e:	4291      	cmp	r1, r2
     4a0:	d105      	bne.n	4ae <_ZNK3Str18is_using_local_bufEv+0x1a>
     4a2:	88d8      	ldrh	r0, [r3, #6]
     4a4:	4b02      	ldr	r3, [pc, #8]	; (4b0 <_ZNK3Str18is_using_local_bufEv+0x1c>)
     4a6:	4018      	ands	r0, r3
     4a8:	1e43      	subs	r3, r0, #1
     4aa:	4198      	sbcs	r0, r3
     4ac:	b2c0      	uxtb	r0, r0
     4ae:	4770      	bx	lr
     4b0:	00007fe0 	.word	0x00007fe0

000004b4 <_ZN6uart_t9availableEv>:
     4b4:	2380      	movs	r3, #128	; 0x80
     4b6:	b510      	push	{r4, lr}
     4b8:	4a08      	ldr	r2, [pc, #32]	; (4dc <_ZN6uart_t9availableEv+0x28>)
     4ba:	009b      	lsls	r3, r3, #2
     4bc:	5ac4      	ldrh	r4, [r0, r3]
     4be:	5a81      	ldrh	r1, [r0, r2]
     4c0:	5ac3      	ldrh	r3, [r0, r3]
     4c2:	428c      	cmp	r4, r1
     4c4:	d303      	bcc.n	4ce <_ZN6uart_t9availableEv+0x1a>
     4c6:	5a80      	ldrh	r0, [r0, r2]
     4c8:	1a18      	subs	r0, r3, r0
     4ca:	b280      	uxth	r0, r0
     4cc:	bd10      	pop	{r4, pc}
     4ce:	2180      	movs	r1, #128	; 0x80
     4d0:	5a82      	ldrh	r2, [r0, r2]
     4d2:	0089      	lsls	r1, r1, #2
     4d4:	1858      	adds	r0, r3, r1
     4d6:	1a80      	subs	r0, r0, r2
     4d8:	e7f7      	b.n	4ca <_ZN6uart_t9availableEv+0x16>
     4da:	46c0      	nop			; (mov r8, r8)
     4dc:	00000202 	.word	0x00000202

000004e0 <_ZN3GSM7CommandEPKcS1_j>:
     4e0:	b5f0      	push	{r4, r5, r6, r7, lr}
     4e2:	b085      	sub	sp, #20
     4e4:	9200      	str	r2, [sp, #0]
     4e6:	2280      	movs	r2, #128	; 0x80
     4e8:	001e      	movs	r6, r3
     4ea:	2300      	movs	r3, #0
     4ec:	0005      	movs	r5, r0
     4ee:	6880      	ldr	r0, [r0, #8]
     4f0:	4c31      	ldr	r4, [pc, #196]	; (5b8 <_ZN3GSM7CommandEPKcS1_j+0xd8>)
     4f2:	0092      	lsls	r2, r2, #2
     4f4:	5283      	strh	r3, [r0, r2]
     4f6:	3204      	adds	r2, #4
     4f8:	5303      	strh	r3, [r0, r4]
     4fa:	5483      	strb	r3, [r0, r2]
     4fc:	f7ff fe16 	bl	12c <_ZN6uart_t5printEPKci.constprop.0>
     500:	210d      	movs	r1, #13
     502:	68a8      	ldr	r0, [r5, #8]
     504:	f7ff fe02 	bl	10c <_ZN6uart_t5writeEc>
     508:	f7ff fe4a 	bl	1a0 <millis>
     50c:	0007      	movs	r7, r0
     50e:	9401      	str	r4, [sp, #4]
     510:	68a8      	ldr	r0, [r5, #8]
     512:	f7ff ffcf 	bl	4b4 <_ZN6uart_t9availableEv>
     516:	1e04      	subs	r4, r0, #0
     518:	d106      	bne.n	528 <_ZN3GSM7CommandEPKcS1_j+0x48>
     51a:	f7ff fe41 	bl	1a0 <millis>
     51e:	1bc0      	subs	r0, r0, r7
     520:	42b0      	cmp	r0, r6
     522:	d3f5      	bcc.n	510 <_ZN3GSM7CommandEPKcS1_j+0x30>
     524:	0020      	movs	r0, r4
     526:	e026      	b.n	576 <_ZN3GSM7CommandEPKcS1_j+0x96>
     528:	f003 f882 	bl	3630 <__delay_usec.constprop.0_veneer>
     52c:	9b00      	ldr	r3, [sp, #0]
     52e:	2001      	movs	r0, #1
     530:	2b00      	cmp	r3, #0
     532:	d020      	beq.n	576 <_ZN3GSM7CommandEPKcS1_j+0x96>
     534:	4b21      	ldr	r3, [pc, #132]	; (5bc <_ZN3GSM7CommandEPKcS1_j+0xdc>)
     536:	68ad      	ldr	r5, [r5, #8]
     538:	5cea      	ldrb	r2, [r5, r3]
     53a:	9303      	str	r3, [sp, #12]
     53c:	2a00      	cmp	r2, #0
     53e:	d038      	beq.n	5b2 <_ZN3GSM7CommandEPKcS1_j+0xd2>
     540:	2400      	movs	r4, #0
     542:	0028      	movs	r0, r5
     544:	f7ff ffb6 	bl	4b4 <_ZN6uart_t9availableEv>
     548:	42a0      	cmp	r0, r4
     54a:	dd32      	ble.n	5b2 <_ZN3GSM7CommandEPKcS1_j+0xd2>
     54c:	2600      	movs	r6, #0
     54e:	9b00      	ldr	r3, [sp, #0]
     550:	5d9b      	ldrb	r3, [r3, r6]
     552:	9302      	str	r3, [sp, #8]
     554:	9b03      	ldr	r3, [sp, #12]
     556:	5ceb      	ldrb	r3, [r5, r3]
     558:	2b00      	cmp	r3, #0
     55a:	d10e      	bne.n	57a <_ZN3GSM7CommandEPKcS1_j+0x9a>
     55c:	2300      	movs	r3, #0
     55e:	9a02      	ldr	r2, [sp, #8]
     560:	429a      	cmp	r2, r3
     562:	d124      	bne.n	5ae <_ZN3GSM7CommandEPKcS1_j+0xce>
     564:	9b00      	ldr	r3, [sp, #0]
     566:	3601      	adds	r6, #1
     568:	5d9b      	ldrb	r3, [r3, r6]
     56a:	2b00      	cmp	r3, #0
     56c:	d1ef      	bne.n	54e <_ZN3GSM7CommandEPKcS1_j+0x6e>
     56e:	3401      	adds	r4, #1
     570:	1e60      	subs	r0, r4, #1
     572:	4184      	sbcs	r4, r0
     574:	b2e0      	uxtb	r0, r4
     576:	b005      	add	sp, #20
     578:	bdf0      	pop	{r4, r5, r6, r7, pc}
     57a:	2381      	movs	r3, #129	; 0x81
     57c:	009b      	lsls	r3, r3, #2
     57e:	5ceb      	ldrb	r3, [r5, r3]
     580:	2b00      	cmp	r3, #0
     582:	d106      	bne.n	592 <_ZN3GSM7CommandEPKcS1_j+0xb2>
     584:	2380      	movs	r3, #128	; 0x80
     586:	009b      	lsls	r3, r3, #2
     588:	5aea      	ldrh	r2, [r5, r3]
     58a:	9b01      	ldr	r3, [sp, #4]
     58c:	5aeb      	ldrh	r3, [r5, r3]
     58e:	429a      	cmp	r2, r3
     590:	d0e4      	beq.n	55c <_ZN3GSM7CommandEPKcS1_j+0x7c>
     592:	0028      	movs	r0, r5
     594:	19a7      	adds	r7, r4, r6
     596:	f7ff ff8d 	bl	4b4 <_ZN6uart_t9availableEv>
     59a:	4287      	cmp	r7, r0
     59c:	dade      	bge.n	55c <_ZN3GSM7CommandEPKcS1_j+0x7c>
     59e:	9b01      	ldr	r3, [sp, #4]
     5a0:	5aeb      	ldrh	r3, [r5, r3]
     5a2:	19df      	adds	r7, r3, r7
     5a4:	05ff      	lsls	r7, r7, #23
     5a6:	0dff      	lsrs	r7, r7, #23
     5a8:	5deb      	ldrb	r3, [r5, r7]
     5aa:	b2db      	uxtb	r3, r3
     5ac:	e7d7      	b.n	55e <_ZN3GSM7CommandEPKcS1_j+0x7e>
     5ae:	3401      	adds	r4, #1
     5b0:	e7c7      	b.n	542 <_ZN3GSM7CommandEPKcS1_j+0x62>
     5b2:	2401      	movs	r4, #1
     5b4:	4264      	negs	r4, r4
     5b6:	e7da      	b.n	56e <_ZN3GSM7CommandEPKcS1_j+0x8e>
     5b8:	00000202 	.word	0x00000202
     5bc:	00000205 	.word	0x00000205

000005c0 <_ZN3GSM13RepeatCommandEPKcS1_ii>:
     5c0:	b5f7      	push	{r0, r1, r2, r4, r5, r6, r7, lr}
     5c2:	000e      	movs	r6, r1
     5c4:	0017      	movs	r7, r2
     5c6:	2500      	movs	r5, #0
     5c8:	9000      	str	r0, [sp, #0]
     5ca:	9301      	str	r3, [sp, #4]
     5cc:	003a      	movs	r2, r7
     5ce:	0031      	movs	r1, r6
     5d0:	9b08      	ldr	r3, [sp, #32]
     5d2:	9800      	ldr	r0, [sp, #0]
     5d4:	f7ff ff84 	bl	4e0 <_ZN3GSM7CommandEPKcS1_j>
     5d8:	1e04      	subs	r4, r0, #0
     5da:	d105      	bne.n	5e8 <_ZN3GSM13RepeatCommandEPKcS1_ii+0x28>
     5dc:	f003 f828 	bl	3630 <__delay_usec.constprop.0_veneer>
     5e0:	9b01      	ldr	r3, [sp, #4]
     5e2:	3501      	adds	r5, #1
     5e4:	42ab      	cmp	r3, r5
     5e6:	d1f1      	bne.n	5cc <_ZN3GSM13RepeatCommandEPKcS1_ii+0xc>
     5e8:	0020      	movs	r0, r4
     5ea:	bdfe      	pop	{r1, r2, r3, r4, r5, r6, r7, pc}

000005ec <_ZN3GSM12InitInternetEv>:
     5ec:	b573      	push	{r0, r1, r4, r5, r6, lr}
     5ee:	0004      	movs	r4, r0
     5f0:	4e0e      	ldr	r6, [pc, #56]	; (62c <_ZN3GSM12InitInternetEv+0x40>)
     5f2:	2200      	movs	r2, #0
     5f4:	0033      	movs	r3, r6
     5f6:	490e      	ldr	r1, [pc, #56]	; (630 <_ZN3GSM12InitInternetEv+0x44>)
     5f8:	f7ff ff72 	bl	4e0 <_ZN3GSM7CommandEPKcS1_j>
     5fc:	0033      	movs	r3, r6
     5fe:	2200      	movs	r2, #0
     600:	490c      	ldr	r1, [pc, #48]	; (634 <_ZN3GSM12InitInternetEv+0x48>)
     602:	0020      	movs	r0, r4
     604:	f7ff ff6c 	bl	4e0 <_ZN3GSM7CommandEPKcS1_j>
     608:	2319      	movs	r3, #25
     60a:	0020      	movs	r0, r4
     60c:	4a0a      	ldr	r2, [pc, #40]	; (638 <_ZN3GSM12InitInternetEv+0x4c>)
     60e:	490b      	ldr	r1, [pc, #44]	; (63c <_ZN3GSM12InitInternetEv+0x50>)
     610:	9600      	str	r6, [sp, #0]
     612:	f7ff ffd5 	bl	5c0 <_ZN3GSM13RepeatCommandEPKcS1_ii>
     616:	1e05      	subs	r5, r0, #0
     618:	d105      	bne.n	626 <_ZN3GSM12InitInternetEv+0x3a>
     61a:	0002      	movs	r2, r0
     61c:	0033      	movs	r3, r6
     61e:	0020      	movs	r0, r4
     620:	4907      	ldr	r1, [pc, #28]	; (640 <_ZN3GSM12InitInternetEv+0x54>)
     622:	f7ff ff5d 	bl	4e0 <_ZN3GSM7CommandEPKcS1_j>
     626:	0028      	movs	r0, r5
     628:	bd76      	pop	{r1, r2, r4, r5, r6, pc}
     62a:	46c0      	nop			; (mov r8, r8)
     62c:	00000bb8 	.word	0x00000bb8
     630:	00002fd0 	.word	0x00002fd0
     634:	00002fee 	.word	0x00002fee
     638:	00002ffb 	.word	0x00002ffb
     63c:	00003007 	.word	0x00003007
     640:	00003014 	.word	0x00003014

00000644 <_ZN9SensornetD1Ev>:
     644:	b510      	push	{r4, lr}
     646:	0004      	movs	r4, r0
     648:	6b40      	ldr	r0, [r0, #52]	; 0x34
     64a:	2800      	cmp	r0, #0
     64c:	d001      	beq.n	652 <_ZN9SensornetD1Ev+0xe>
     64e:	f001 fe99 	bl	2384 <free>
     652:	6ae0      	ldr	r0, [r4, #44]	; 0x2c
     654:	2800      	cmp	r0, #0
     656:	d001      	beq.n	65c <_ZN9SensornetD1Ev+0x18>
     658:	f001 fe94 	bl	2384 <free>
     65c:	0020      	movs	r0, r4
     65e:	bd10      	pop	{r4, pc}

00000660 <_ZZ4mainENUlP3GSMPKcS2_E0_4_FUNES0_S2_S2_>:
     660:	b510      	push	{r4, lr}
     662:	4c06      	ldr	r4, [pc, #24]	; (67c <_ZZ4mainENUlP3GSMPKcS2_E0_4_FUNES0_S2_S2_+0x1c>)
     664:	6b60      	ldr	r0, [r4, #52]	; 0x34
     666:	2800      	cmp	r0, #0
     668:	d004      	beq.n	674 <_ZZ4mainENUlP3GSMPKcS2_E0_4_FUNES0_S2_S2_+0x14>
     66a:	6b23      	ldr	r3, [r4, #48]	; 0x30
     66c:	2b00      	cmp	r3, #0
     66e:	d001      	beq.n	674 <_ZZ4mainENUlP3GSMPKcS2_E0_4_FUNES0_S2_S2_+0x14>
     670:	f001 fe88 	bl	2384 <free>
     674:	2300      	movs	r3, #0
     676:	6363      	str	r3, [r4, #52]	; 0x34
     678:	6323      	str	r3, [r4, #48]	; 0x30
     67a:	bd10      	pop	{r4, pc}
     67c:	20000108 	.word	0x20000108

00000680 <_ZN3GSMD1Ev>:
     680:	b510      	push	{r4, lr}
     682:	0004      	movs	r4, r0
     684:	6900      	ldr	r0, [r0, #16]
     686:	2800      	cmp	r0, #0
     688:	d001      	beq.n	68e <_ZN3GSMD1Ev+0xe>
     68a:	f001 fe7b 	bl	2384 <free>
     68e:	0020      	movs	r0, r4
     690:	bd10      	pop	{r4, pc}

00000692 <_ZN3StrD1Ev>:
     692:	79c3      	ldrb	r3, [r0, #7]
     694:	b510      	push	{r4, lr}
     696:	0004      	movs	r4, r0
     698:	2b7f      	cmp	r3, #127	; 0x7f
     69a:	d906      	bls.n	6aa <_ZN3StrD1Ev+0x18>
     69c:	f7ff fefa 	bl	494 <_ZNK3Str18is_using_local_bufEv>
     6a0:	2800      	cmp	r0, #0
     6a2:	d102      	bne.n	6aa <_ZN3StrD1Ev+0x18>
     6a4:	6820      	ldr	r0, [r4, #0]
     6a6:	f001 fe6d 	bl	2384 <free>
     6aa:	0020      	movs	r0, r4
     6ac:	bd10      	pop	{r4, pc}

000006ae <_ZN3Str3setEPKc.constprop.0>:
     6ae:	6843      	ldr	r3, [r0, #4]
     6b0:	b510      	push	{r4, lr}
     6b2:	02db      	lsls	r3, r3, #11
     6b4:	0004      	movs	r4, r0
     6b6:	0adb      	lsrs	r3, r3, #11
     6b8:	2b06      	cmp	r3, #6
     6ba:	d816      	bhi.n	6ea <_ZN3Str3setEPKc.constprop.0+0x3c>
     6bc:	79c3      	ldrb	r3, [r0, #7]
     6be:	2b7f      	cmp	r3, #127	; 0x7f
     6c0:	d906      	bls.n	6d0 <_ZN3Str3setEPKc.constprop.0+0x22>
     6c2:	f7ff fee7 	bl	494 <_ZNK3Str18is_using_local_bufEv>
     6c6:	2800      	cmp	r0, #0
     6c8:	d102      	bne.n	6d0 <_ZN3Str3setEPKc.constprop.0+0x22>
     6ca:	6820      	ldr	r0, [r4, #0]
     6cc:	f001 fe5a 	bl	2384 <free>
     6d0:	88e3      	ldrh	r3, [r4, #6]
     6d2:	045b      	lsls	r3, r3, #17
     6d4:	0d9a      	lsrs	r2, r3, #22
     6d6:	2a07      	cmp	r2, #7
     6d8:	d912      	bls.n	700 <_ZN3Str3setEPKc.constprop.0+0x52>
     6da:	0023      	movs	r3, r4
     6dc:	3308      	adds	r3, #8
     6de:	6023      	str	r3, [r4, #0]
     6e0:	6863      	ldr	r3, [r4, #4]
     6e2:	0d5b      	lsrs	r3, r3, #21
     6e4:	055b      	lsls	r3, r3, #21
     6e6:	4313      	orrs	r3, r2
     6e8:	6063      	str	r3, [r4, #4]
     6ea:	2207      	movs	r2, #7
     6ec:	4909      	ldr	r1, [pc, #36]	; (714 <_ZN3Str3setEPKc.constprop.0+0x66>)
     6ee:	6820      	ldr	r0, [r4, #0]
     6f0:	f001 ff28 	bl	2544 <memcpy>
     6f4:	2380      	movs	r3, #128	; 0x80
     6f6:	79e2      	ldrb	r2, [r4, #7]
     6f8:	425b      	negs	r3, r3
     6fa:	4313      	orrs	r3, r2
     6fc:	71e3      	strb	r3, [r4, #7]
     6fe:	bd10      	pop	{r4, pc}
     700:	2007      	movs	r0, #7
     702:	f001 fe35 	bl	2370 <malloc>
     706:	6863      	ldr	r3, [r4, #4]
     708:	2207      	movs	r2, #7
     70a:	0d5b      	lsrs	r3, r3, #21
     70c:	6020      	str	r0, [r4, #0]
     70e:	055b      	lsls	r3, r3, #21
     710:	e7e9      	b.n	6e6 <_ZN3Str3setEPKc.constprop.0+0x38>
     712:	46c0      	nop			; (mov r8, r8)
     714:	00003021 	.word	0x00003021

00000718 <_ZN6uart_t4readEv>:
     718:	b5f7      	push	{r0, r1, r2, r4, r5, r6, r7, lr}
     71a:	4b0f      	ldr	r3, [pc, #60]	; (758 <_ZN6uart_t4readEv+0x40>)
     71c:	0005      	movs	r5, r0
     71e:	5cc3      	ldrb	r3, [r0, r3]
     720:	2b00      	cmp	r3, #0
     722:	d102      	bne.n	72a <_ZN6uart_t4readEv+0x12>
     724:	2400      	movs	r4, #0
     726:	0020      	movs	r0, r4
     728:	bdfe      	pop	{r1, r2, r3, r4, r5, r6, r7, pc}
     72a:	f7ff fec3 	bl	4b4 <_ZN6uart_t9availableEv>
     72e:	1e07      	subs	r7, r0, #0
     730:	d0f8      	beq.n	724 <_ZN6uart_t4readEv+0xc>
     732:	3001      	adds	r0, #1
     734:	f001 fe1c 	bl	2370 <malloc>
     738:	1e04      	subs	r4, r0, #0
     73a:	d0f3      	beq.n	724 <_ZN6uart_t4readEv+0xc>
     73c:	0006      	movs	r6, r0
     73e:	19c3      	adds	r3, r0, r7
     740:	9301      	str	r3, [sp, #4]
     742:	0028      	movs	r0, r5
     744:	f7ff fcbe 	bl	c4 <_ZN6uart_t4getcEv>
     748:	9b01      	ldr	r3, [sp, #4]
     74a:	7030      	strb	r0, [r6, #0]
     74c:	3601      	adds	r6, #1
     74e:	429e      	cmp	r6, r3
     750:	d1f7      	bne.n	742 <_ZN6uart_t4readEv+0x2a>
     752:	2300      	movs	r3, #0
     754:	55e3      	strb	r3, [r4, r7]
     756:	e7e6      	b.n	726 <_ZN6uart_t4readEv+0xe>
     758:	00000205 	.word	0x00000205

0000075c <_ZN9Sensornet10UpdateNodeERK12SensorPacket.constprop.0>:
     75c:	2224      	movs	r2, #36	; 0x24
     75e:	0001      	movs	r1, r0
     760:	b570      	push	{r4, r5, r6, lr}
     762:	4d20      	ldr	r5, [pc, #128]	; (7e4 <_ZN9Sensornet10UpdateNodeERK12SensorPacket.constprop.0+0x88>)
     764:	b08a      	sub	sp, #40	; 0x28
     766:	6b2b      	ldr	r3, [r5, #48]	; 0x30
     768:	435a      	muls	r2, r3
     76a:	6b6b      	ldr	r3, [r5, #52]	; 0x34
     76c:	189a      	adds	r2, r3, r2
     76e:	001c      	movs	r4, r3
     770:	429a      	cmp	r2, r3
     772:	d00f      	beq.n	794 <_ZN9Sensornet10UpdateNodeERK12SensorPacket.constprop.0+0x38>
     774:	2600      	movs	r6, #0
     776:	2000      	movs	r0, #0
     778:	57a6      	ldrsb	r6, [r4, r6]
     77a:	5608      	ldrsb	r0, [r1, r0]
     77c:	3324      	adds	r3, #36	; 0x24
     77e:	4286      	cmp	r6, r0
     780:	d1f5      	bne.n	76e <_ZN9Sensornet10UpdateNodeERK12SensorPacket.constprop.0+0x12>
     782:	2220      	movs	r2, #32
     784:	0020      	movs	r0, r4
     786:	f001 fedd 	bl	2544 <memcpy>
     78a:	f7ff fd09 	bl	1a0 <millis>
     78e:	6220      	str	r0, [r4, #32]
     790:	b00a      	add	sp, #40	; 0x28
     792:	bd70      	pop	{r4, r5, r6, pc}
     794:	ac01      	add	r4, sp, #4
     796:	2220      	movs	r2, #32
     798:	0020      	movs	r0, r4
     79a:	f001 fed3 	bl	2544 <memcpy>
     79e:	f7ff fcff 	bl	1a0 <millis>
     7a2:	6b29      	ldr	r1, [r5, #48]	; 0x30
     7a4:	0006      	movs	r6, r0
     7a6:	2900      	cmp	r1, #0
     7a8:	d018      	beq.n	7dc <_ZN9Sensornet10UpdateNodeERK12SensorPacket.constprop.0+0x80>
     7aa:	2324      	movs	r3, #36	; 0x24
     7ac:	3101      	adds	r1, #1
     7ae:	4359      	muls	r1, r3
     7b0:	6b68      	ldr	r0, [r5, #52]	; 0x34
     7b2:	f001 fedf 	bl	2574 <realloc>
     7b6:	2800      	cmp	r0, #0
     7b8:	d0ea      	beq.n	790 <_ZN9Sensornet10UpdateNodeERK12SensorPacket.constprop.0+0x34>
     7ba:	2324      	movs	r3, #36	; 0x24
     7bc:	6b2a      	ldr	r2, [r5, #48]	; 0x30
     7be:	6368      	str	r0, [r5, #52]	; 0x34
     7c0:	4353      	muls	r3, r2
     7c2:	18c0      	adds	r0, r0, r3
     7c4:	0002      	movs	r2, r0
     7c6:	9609      	str	r6, [sp, #36]	; 0x24
     7c8:	cc0b      	ldmia	r4!, {r0, r1, r3}
     7ca:	c20b      	stmia	r2!, {r0, r1, r3}
     7cc:	cc0b      	ldmia	r4!, {r0, r1, r3}
     7ce:	c20b      	stmia	r2!, {r0, r1, r3}
     7d0:	cc0b      	ldmia	r4!, {r0, r1, r3}
     7d2:	c20b      	stmia	r2!, {r0, r1, r3}
     7d4:	6b2b      	ldr	r3, [r5, #48]	; 0x30
     7d6:	3301      	adds	r3, #1
     7d8:	632b      	str	r3, [r5, #48]	; 0x30
     7da:	e7d9      	b.n	790 <_ZN9Sensornet10UpdateNodeERK12SensorPacket.constprop.0+0x34>
     7dc:	2024      	movs	r0, #36	; 0x24
     7de:	f001 fdc7 	bl	2370 <malloc>
     7e2:	e7e8      	b.n	7b6 <_ZN9Sensornet10UpdateNodeERK12SensorPacket.constprop.0+0x5a>
     7e4:	20000108 	.word	0x20000108

000007e8 <_ZN6VectorI7SMSFuncE9push_backERKS0_>:
     7e8:	b570      	push	{r4, r5, r6, lr}
     7ea:	000d      	movs	r5, r1
     7ec:	6801      	ldr	r1, [r0, #0]
     7ee:	0004      	movs	r4, r0
     7f0:	2900      	cmp	r1, #0
     7f2:	d011      	beq.n	818 <_ZN6VectorI7SMSFuncE9push_backERKS0_+0x30>
     7f4:	230c      	movs	r3, #12
     7f6:	3101      	adds	r1, #1
     7f8:	4359      	muls	r1, r3
     7fa:	6840      	ldr	r0, [r0, #4]
     7fc:	f001 feba 	bl	2574 <realloc>
     800:	2800      	cmp	r0, #0
     802:	d008      	beq.n	816 <_ZN6VectorI7SMSFuncE9push_backERKS0_+0x2e>
     804:	220c      	movs	r2, #12
     806:	6823      	ldr	r3, [r4, #0]
     808:	6060      	str	r0, [r4, #4]
     80a:	435a      	muls	r2, r3
     80c:	3301      	adds	r3, #1
     80e:	1880      	adds	r0, r0, r2
     810:	cd46      	ldmia	r5!, {r1, r2, r6}
     812:	c046      	stmia	r0!, {r1, r2, r6}
     814:	6023      	str	r3, [r4, #0]
     816:	bd70      	pop	{r4, r5, r6, pc}
     818:	200c      	movs	r0, #12
     81a:	f001 fda9 	bl	2370 <malloc>
     81e:	e7ef      	b.n	800 <_ZN6VectorI7SMSFuncE9push_backERKS0_+0x18>

00000820 <_ZN9Sensornet4PollEv.constprop.0>:
     820:	b5f0      	push	{r4, r5, r6, r7, lr}
     822:	2017      	movs	r0, #23
     824:	b08d      	sub	sp, #52	; 0x34
     826:	f7ff fce5 	bl	1f4 <_ZN4RF2413read_registerEh.constprop.0>
     82a:	2301      	movs	r3, #1
     82c:	0002      	movs	r2, r0
     82e:	401a      	ands	r2, r3
     830:	9201      	str	r2, [sp, #4]
     832:	4218      	tst	r0, r3
     834:	d000      	beq.n	838 <_ZN9Sensornet4PollEv.constprop.0+0x18>
     836:	e0bd      	b.n	9b4 <_ZN9Sensornet4PollEv.constprop.0+0x194>
     838:	4c5f      	ldr	r4, [pc, #380]	; (9b8 <_ZN9Sensornet4PollEv.constprop.0+0x198>)
     83a:	7de3      	ldrb	r3, [r4, #23]
     83c:	1c1e      	adds	r6, r3, #0
     83e:	2b20      	cmp	r3, #32
     840:	d900      	bls.n	844 <_ZN9Sensornet4PollEv.constprop.0+0x24>
     842:	2620      	movs	r6, #32
     844:	7e22      	ldrb	r2, [r4, #24]
     846:	b2f6      	uxtb	r6, r6
     848:	2a00      	cmp	r2, #0
     84a:	d102      	bne.n	852 <_ZN9Sensornet4PollEv.constprop.0+0x32>
     84c:	1b9b      	subs	r3, r3, r6
     84e:	b2db      	uxtb	r3, r3
     850:	9301      	str	r3, [sp, #4]
     852:	f7ff fc13 	bl	7c <_ZN4RF2416beginTransactionEv.constprop.0>
     856:	af04      	add	r7, sp, #16
     858:	2161      	movs	r1, #97	; 0x61
     85a:	6820      	ldr	r0, [r4, #0]
     85c:	f7ff fcba 	bl	1d4 <_ZN5spi_t8TransferEh>
     860:	003d      	movs	r5, r7
     862:	3e01      	subs	r6, #1
     864:	b2f6      	uxtb	r6, r6
     866:	2eff      	cmp	r6, #255	; 0xff
     868:	d006      	beq.n	878 <_ZN9Sensornet4PollEv.constprop.0+0x58>
     86a:	21ff      	movs	r1, #255	; 0xff
     86c:	6820      	ldr	r0, [r4, #0]
     86e:	f7ff fcb1 	bl	1d4 <_ZN5spi_t8TransferEh>
     872:	7038      	strb	r0, [r7, #0]
     874:	3701      	adds	r7, #1
     876:	e7f4      	b.n	862 <_ZN9Sensornet4PollEv.constprop.0+0x42>
     878:	9b01      	ldr	r3, [sp, #4]
     87a:	3b01      	subs	r3, #1
     87c:	b2db      	uxtb	r3, r3
     87e:	9301      	str	r3, [sp, #4]
     880:	2bff      	cmp	r3, #255	; 0xff
     882:	d004      	beq.n	88e <_ZN9Sensornet4PollEv.constprop.0+0x6e>
     884:	21ff      	movs	r1, #255	; 0xff
     886:	6820      	ldr	r0, [r4, #0]
     888:	f7ff fca4 	bl	1d4 <_ZN5spi_t8TransferEh>
     88c:	e7f4      	b.n	878 <_ZN9Sensornet4PollEv.constprop.0+0x58>
     88e:	f7ff fc07 	bl	a0 <_ZN4RF2414endTransactionEv.constprop.0>
     892:	2170      	movs	r1, #112	; 0x70
     894:	2007      	movs	r0, #7
     896:	f7ff fcdf 	bl	258 <_ZN4RF2414write_registerEhh.constprop.0>
     89a:	2200      	movs	r2, #0
     89c:	2380      	movs	r3, #128	; 0x80
     89e:	56aa      	ldrsb	r2, [r5, r2]
     8a0:	00db      	lsls	r3, r3, #3
     8a2:	4313      	orrs	r3, r2
     8a4:	17d1      	asrs	r1, r2, #31
     8a6:	9302      	str	r3, [sp, #8]
     8a8:	9103      	str	r1, [sp, #12]
     8aa:	7fa2      	ldrb	r2, [r4, #30]
     8ac:	a902      	add	r1, sp, #8
     8ae:	200a      	movs	r0, #10
     8b0:	f7ff fcb4 	bl	21c <_ZN4RF2414write_registerEhPKhh.constprop.0>
     8b4:	7fa2      	ldrb	r2, [r4, #30]
     8b6:	a902      	add	r1, sp, #8
     8b8:	2010      	movs	r0, #16
     8ba:	f7ff fcaf 	bl	21c <_ZN4RF2414write_registerEhPKhh.constprop.0>
     8be:	2011      	movs	r0, #17
     8c0:	7de1      	ldrb	r1, [r4, #23]
     8c2:	f7ff fcc9 	bl	258 <_ZN4RF2414write_registerEhh.constprop.0>
     8c6:	2300      	movs	r3, #0
     8c8:	56eb      	ldrsb	r3, [r5, r3]
     8ca:	2b00      	cmp	r3, #0
     8cc:	d163      	bne.n	996 <_ZN9Sensornet4PollEv.constprop.0+0x176>
     8ce:	6b22      	ldr	r2, [r4, #48]	; 0x30
     8d0:	3301      	adds	r3, #1
     8d2:	702b      	strb	r3, [r5, #0]
     8d4:	3323      	adds	r3, #35	; 0x23
     8d6:	4353      	muls	r3, r2
     8d8:	6b62      	ldr	r2, [r4, #52]	; 0x34
     8da:	2708      	movs	r7, #8
     8dc:	0016      	movs	r6, r2
     8de:	18d3      	adds	r3, r2, r3
     8e0:	9301      	str	r3, [sp, #4]
     8e2:	9b01      	ldr	r3, [sp, #4]
     8e4:	42b3      	cmp	r3, r6
     8e6:	d00c      	beq.n	902 <_ZN9Sensornet4PollEv.constprop.0+0xe2>
     8e8:	2309      	movs	r3, #9
     8ea:	a902      	add	r1, sp, #8
     8ec:	185b      	adds	r3, r3, r1
     8ee:	0019      	movs	r1, r3
     8f0:	003a      	movs	r2, r7
     8f2:	1c70      	adds	r0, r6, #1
     8f4:	f001 febd 	bl	2672 <strncmp>
     8f8:	2300      	movs	r3, #0
     8fa:	56f3      	ldrsb	r3, [r6, r3]
     8fc:	2800      	cmp	r0, #0
     8fe:	d142      	bne.n	986 <_ZN9Sensornet4PollEv.constprop.0+0x166>
     900:	702b      	strb	r3, [r5, #0]
     902:	0028      	movs	r0, r5
     904:	f7ff ff2a 	bl	75c <_ZN9Sensornet10UpdateNodeERK12SensorPacket.constprop.0>
     908:	f7ff fd01 	bl	30e <_ZN4RF2413stopListeningEv.constprop.0>
     90c:	23ff      	movs	r3, #255	; 0xff
     90e:	0028      	movs	r0, r5
     910:	726b      	strb	r3, [r5, #9]
     912:	3bfe      	subs	r3, #254	; 0xfe
     914:	72ab      	strb	r3, [r5, #10]
     916:	f7ff fd4b 	bl	3b0 <_ZN4RF245writeEPKvhb.constprop.0>
     91a:	f7ff fd19 	bl	350 <_ZN4RF2414startListeningEv.constprop.0>
     91e:	2600      	movs	r6, #0
     920:	6aa3      	ldr	r3, [r4, #40]	; 0x28
     922:	42b3      	cmp	r3, r6
     924:	d943      	bls.n	9ae <_ZN9Sensornet4PollEv.constprop.0+0x18e>
     926:	6ae3      	ldr	r3, [r4, #44]	; 0x2c
     928:	0177      	lsls	r7, r6, #5
     92a:	19da      	adds	r2, r3, r7
     92c:	9201      	str	r2, [sp, #4]
     92e:	57da      	ldrsb	r2, [r3, r7]
     930:	2300      	movs	r3, #0
     932:	56eb      	ldrsb	r3, [r5, r3]
     934:	429a      	cmp	r2, r3
     936:	d124      	bne.n	982 <_ZN9Sensornet4PollEv.constprop.0+0x162>
     938:	f7ff fce9 	bl	30e <_ZN4RF2413stopListeningEv.constprop.0>
     93c:	9801      	ldr	r0, [sp, #4]
     93e:	f7ff fd37 	bl	3b0 <_ZN4RF245writeEPKvhb.constprop.0>
     942:	2800      	cmp	r0, #0
     944:	d01b      	beq.n	97e <_ZN9Sensornet4PollEv.constprop.0+0x15e>
     946:	6aa2      	ldr	r2, [r4, #40]	; 0x28
     948:	2a00      	cmp	r2, #0
     94a:	d017      	beq.n	97c <_ZN9Sensornet4PollEv.constprop.0+0x15c>
     94c:	6ae3      	ldr	r3, [r4, #44]	; 0x2c
     94e:	19d8      	adds	r0, r3, r7
     950:	4283      	cmp	r3, r0
     952:	d813      	bhi.n	97c <_ZN9Sensornet4PollEv.constprop.0+0x15c>
     954:	0152      	lsls	r2, r2, #5
     956:	189b      	adds	r3, r3, r2
     958:	4298      	cmp	r0, r3
     95a:	d20f      	bcs.n	97c <_ZN9Sensornet4PollEv.constprop.0+0x15c>
     95c:	0001      	movs	r1, r0
     95e:	117f      	asrs	r7, r7, #5
     960:	3a20      	subs	r2, #32
     962:	1bd2      	subs	r2, r2, r7
     964:	3120      	adds	r1, #32
     966:	f001 fded 	bl	2544 <memcpy>
     96a:	6aa3      	ldr	r3, [r4, #40]	; 0x28
     96c:	1e5f      	subs	r7, r3, #1
     96e:	62a7      	str	r7, [r4, #40]	; 0x28
     970:	2f00      	cmp	r7, #0
     972:	d114      	bne.n	99e <_ZN9Sensornet4PollEv.constprop.0+0x17e>
     974:	6ae0      	ldr	r0, [r4, #44]	; 0x2c
     976:	f001 fd05 	bl	2384 <free>
     97a:	62e7      	str	r7, [r4, #44]	; 0x2c
     97c:	3e01      	subs	r6, #1
     97e:	f7ff fce7 	bl	350 <_ZN4RF2414startListeningEv.constprop.0>
     982:	3601      	adds	r6, #1
     984:	e7cc      	b.n	920 <_ZN9Sensornet4PollEv.constprop.0+0x100>
     986:	2200      	movs	r2, #0
     988:	56aa      	ldrsb	r2, [r5, r2]
     98a:	429a      	cmp	r2, r3
     98c:	dc01      	bgt.n	992 <_ZN9Sensornet4PollEv.constprop.0+0x172>
     98e:	3301      	adds	r3, #1
     990:	702b      	strb	r3, [r5, #0]
     992:	3624      	adds	r6, #36	; 0x24
     994:	e7a5      	b.n	8e2 <_ZN9Sensornet4PollEv.constprop.0+0xc2>
     996:	0028      	movs	r0, r5
     998:	f7ff fee0 	bl	75c <_ZN9Sensornet10UpdateNodeERK12SensorPacket.constprop.0>
     99c:	e7bf      	b.n	91e <_ZN9Sensornet4PollEv.constprop.0+0xfe>
     99e:	6ae0      	ldr	r0, [r4, #44]	; 0x2c
     9a0:	0179      	lsls	r1, r7, #5
     9a2:	f001 fde7 	bl	2574 <realloc>
     9a6:	2800      	cmp	r0, #0
     9a8:	d0e8      	beq.n	97c <_ZN9Sensornet4PollEv.constprop.0+0x15c>
     9aa:	62e0      	str	r0, [r4, #44]	; 0x2c
     9ac:	e7e6      	b.n	97c <_ZN9Sensornet4PollEv.constprop.0+0x15c>
     9ae:	20e2      	movs	r0, #226	; 0xe2
     9b0:	f7ff fc98 	bl	2e4 <_ZN4RF248spiTransEh.constprop.0>
     9b4:	b00d      	add	sp, #52	; 0x34
     9b6:	bdf0      	pop	{r4, r5, r6, r7, pc}
     9b8:	20000108 	.word	0x20000108

000009bc <_ZN3Str7reserveEi.part.0>:
     9bc:	b5f8      	push	{r3, r4, r5, r6, r7, lr}
     9be:	88c4      	ldrh	r4, [r0, #6]
     9c0:	0005      	movs	r5, r0
     9c2:	0464      	lsls	r4, r4, #17
     9c4:	000f      	movs	r7, r1
     9c6:	0da4      	lsrs	r4, r4, #22
     9c8:	428c      	cmp	r4, r1
     9ca:	dd21      	ble.n	a10 <_ZN3Str7reserveEi.part.0+0x54>
     9cc:	0006      	movs	r6, r0
     9ce:	3608      	adds	r6, #8
     9d0:	1e62      	subs	r2, r4, #1
     9d2:	0030      	movs	r0, r6
     9d4:	6829      	ldr	r1, [r5, #0]
     9d6:	f001 fe5d 	bl	2694 <strncpy>
     9da:	2200      	movs	r2, #0
     9dc:	1933      	adds	r3, r6, r4
     9de:	3b01      	subs	r3, #1
     9e0:	701a      	strb	r2, [r3, #0]
     9e2:	79eb      	ldrb	r3, [r5, #7]
     9e4:	2b7f      	cmp	r3, #127	; 0x7f
     9e6:	d907      	bls.n	9f8 <_ZN3Str7reserveEi.part.0+0x3c>
     9e8:	0028      	movs	r0, r5
     9ea:	f7ff fd53 	bl	494 <_ZNK3Str18is_using_local_bufEv>
     9ee:	2800      	cmp	r0, #0
     9f0:	d102      	bne.n	9f8 <_ZN3Str7reserveEi.part.0+0x3c>
     9f2:	6828      	ldr	r0, [r5, #0]
     9f4:	f001 fcc6 	bl	2384 <free>
     9f8:	2380      	movs	r3, #128	; 0x80
     9fa:	02e4      	lsls	r4, r4, #11
     9fc:	061b      	lsls	r3, r3, #24
     9fe:	0ae4      	lsrs	r4, r4, #11
     a00:	686a      	ldr	r2, [r5, #4]
     a02:	431c      	orrs	r4, r3
     a04:	4b05      	ldr	r3, [pc, #20]	; (a1c <_ZN3Str7reserveEi.part.0+0x60>)
     a06:	602e      	str	r6, [r5, #0]
     a08:	4013      	ands	r3, r2
     a0a:	431c      	orrs	r4, r3
     a0c:	606c      	str	r4, [r5, #4]
     a0e:	bdf8      	pop	{r3, r4, r5, r6, r7, pc}
     a10:	0008      	movs	r0, r1
     a12:	f001 fcad 	bl	2370 <malloc>
     a16:	003c      	movs	r4, r7
     a18:	0006      	movs	r6, r0
     a1a:	e7d9      	b.n	9d0 <_ZN3Str7reserveEi.part.0+0x14>
     a1c:	7fe00000 	.word	0x7fe00000

00000a20 <_Z9UpdateRTCv>:
     a20:	b5f8      	push	{r3, r4, r5, r6, r7, lr}
     a22:	4d2e      	ldr	r5, [pc, #184]	; (adc <_Z9UpdateRTCv+0xbc>)
     a24:	4c2e      	ldr	r4, [pc, #184]	; (ae0 <_Z9UpdateRTCv+0xc0>)
     a26:	0028      	movs	r0, r5
     a28:	0022      	movs	r2, r4
     a2a:	4b2e      	ldr	r3, [pc, #184]	; (ae4 <_Z9UpdateRTCv+0xc4>)
     a2c:	492e      	ldr	r1, [pc, #184]	; (ae8 <_Z9UpdateRTCv+0xc8>)
     a2e:	3040      	adds	r0, #64	; 0x40
     a30:	f7ff fd56 	bl	4e0 <_ZN3GSM7CommandEPKcS1_j>
     a34:	2800      	cmp	r0, #0
     a36:	d00c      	beq.n	a52 <_Z9UpdateRTCv+0x32>
     a38:	6ca8      	ldr	r0, [r5, #72]	; 0x48
     a3a:	f7ff fe6d 	bl	718 <_ZN6uart_t4readEv>
     a3e:	1e06      	subs	r6, r0, #0
     a40:	d007      	beq.n	a52 <_Z9UpdateRTCv+0x32>
     a42:	0021      	movs	r1, r4
     a44:	f001 fe3a 	bl	26bc <strstr>
     a48:	1e05      	subs	r5, r0, #0
     a4a:	d103      	bne.n	a54 <_Z9UpdateRTCv+0x34>
     a4c:	0030      	movs	r0, r6
     a4e:	f001 fc99 	bl	2384 <free>
     a52:	bdf8      	pop	{r3, r4, r5, r6, r7, pc}
     a54:	3008      	adds	r0, #8
     a56:	f001 fb64 	bl	2122 <atoi>
     a5a:	4c24      	ldr	r4, [pc, #144]	; (aec <_Z9UpdateRTCv+0xcc>)
     a5c:	0682      	lsls	r2, r0, #26
     a5e:	6923      	ldr	r3, [r4, #16]
     a60:	273f      	movs	r7, #63	; 0x3f
     a62:	0198      	lsls	r0, r3, #6
     a64:	0980      	lsrs	r0, r0, #6
     a66:	4310      	orrs	r0, r2
     a68:	6120      	str	r0, [r4, #16]
     a6a:	0028      	movs	r0, r5
     a6c:	300b      	adds	r0, #11
     a6e:	f001 fb58 	bl	2122 <atoi>
     a72:	220f      	movs	r2, #15
     a74:	6923      	ldr	r3, [r4, #16]
     a76:	4010      	ands	r0, r2
     a78:	4a1d      	ldr	r2, [pc, #116]	; (af0 <_Z9UpdateRTCv+0xd0>)
     a7a:	0580      	lsls	r0, r0, #22
     a7c:	4013      	ands	r3, r2
     a7e:	4303      	orrs	r3, r0
     a80:	0028      	movs	r0, r5
     a82:	6123      	str	r3, [r4, #16]
     a84:	300e      	adds	r0, #14
     a86:	f001 fb4c 	bl	2122 <atoi>
     a8a:	221f      	movs	r2, #31
     a8c:	6923      	ldr	r3, [r4, #16]
     a8e:	4010      	ands	r0, r2
     a90:	4a18      	ldr	r2, [pc, #96]	; (af4 <_Z9UpdateRTCv+0xd4>)
     a92:	0440      	lsls	r0, r0, #17
     a94:	4013      	ands	r3, r2
     a96:	4303      	orrs	r3, r0
     a98:	0028      	movs	r0, r5
     a9a:	6123      	str	r3, [r4, #16]
     a9c:	3011      	adds	r0, #17
     a9e:	f001 fb40 	bl	2122 <atoi>
     aa2:	221f      	movs	r2, #31
     aa4:	6923      	ldr	r3, [r4, #16]
     aa6:	4010      	ands	r0, r2
     aa8:	4a13      	ldr	r2, [pc, #76]	; (af8 <_Z9UpdateRTCv+0xd8>)
     aaa:	0300      	lsls	r0, r0, #12
     aac:	4013      	ands	r3, r2
     aae:	4303      	orrs	r3, r0
     ab0:	0028      	movs	r0, r5
     ab2:	6123      	str	r3, [r4, #16]
     ab4:	3014      	adds	r0, #20
     ab6:	f001 fb34 	bl	2122 <atoi>
     aba:	6923      	ldr	r3, [r4, #16]
     abc:	4a0f      	ldr	r2, [pc, #60]	; (afc <_Z9UpdateRTCv+0xdc>)
     abe:	4038      	ands	r0, r7
     ac0:	0180      	lsls	r0, r0, #6
     ac2:	4013      	ands	r3, r2
     ac4:	4303      	orrs	r3, r0
     ac6:	0028      	movs	r0, r5
     ac8:	6123      	str	r3, [r4, #16]
     aca:	3017      	adds	r0, #23
     acc:	f001 fb29 	bl	2122 <atoi>
     ad0:	6923      	ldr	r3, [r4, #16]
     ad2:	4038      	ands	r0, r7
     ad4:	43bb      	bics	r3, r7
     ad6:	4303      	orrs	r3, r0
     ad8:	6123      	str	r3, [r4, #16]
     ada:	e7b7      	b.n	a4c <_Z9UpdateRTCv+0x2c>
     adc:	20000108 	.word	0x20000108
     ae0:	00003028 	.word	0x00003028
     ae4:	00000bb8 	.word	0x00000bb8
     ae8:	00003030 	.word	0x00003030
     aec:	40001400 	.word	0x40001400
     af0:	fc3fffff 	.word	0xfc3fffff
     af4:	ffc1ffff 	.word	0xffc1ffff
     af8:	fffe0fff 	.word	0xfffe0fff
     afc:	fffff03f 	.word	0xfffff03f

00000b00 <_ZN3GSM11GetNumLevelEPKc>:
     b00:	b510      	push	{r4, lr}
     b02:	0004      	movs	r4, r0
     b04:	b090      	sub	sp, #64	; 0x40
     b06:	000b      	movs	r3, r1
     b08:	4a14      	ldr	r2, [pc, #80]	; (b5c <_ZN3GSM11GetNumLevelEPKc+0x5c>)
     b0a:	2140      	movs	r1, #64	; 0x40
     b0c:	4668      	mov	r0, sp
     b0e:	f001 fd3b 	bl	2588 <sniprintf>
     b12:	4669      	mov	r1, sp
     b14:	0020      	movs	r0, r4
     b16:	4b12      	ldr	r3, [pc, #72]	; (b60 <_ZN3GSM11GetNumLevelEPKc+0x60>)
     b18:	4a12      	ldr	r2, [pc, #72]	; (b64 <_ZN3GSM11GetNumLevelEPKc+0x64>)
     b1a:	f7ff fce1 	bl	4e0 <_ZN3GSM7CommandEPKcS1_j>
     b1e:	2800      	cmp	r0, #0
     b20:	d102      	bne.n	b28 <_ZN3GSM11GetNumLevelEPKc+0x28>
     b22:	2000      	movs	r0, #0
     b24:	b010      	add	sp, #64	; 0x40
     b26:	bd10      	pop	{r4, pc}
     b28:	68a0      	ldr	r0, [r4, #8]
     b2a:	f7ff fcc3 	bl	4b4 <_ZN6uart_t9availableEv>
     b2e:	2802      	cmp	r0, #2
     b30:	d9f7      	bls.n	b22 <_ZN3GSM11GetNumLevelEPKc+0x22>
     b32:	68a0      	ldr	r0, [r4, #8]
     b34:	f7ff fac6 	bl	c4 <_ZN6uart_t4getcEv>
     b38:	68a0      	ldr	r0, [r4, #8]
     b3a:	f7ff fac3 	bl	c4 <_ZN6uart_t4getcEv>
     b3e:	68a0      	ldr	r0, [r4, #8]
     b40:	f7ff fac0 	bl	c4 <_ZN6uart_t4getcEv>
     b44:	2180      	movs	r1, #128	; 0x80
     b46:	2200      	movs	r2, #0
     b48:	68a3      	ldr	r3, [r4, #8]
     b4a:	0089      	lsls	r1, r1, #2
     b4c:	525a      	strh	r2, [r3, r1]
     b4e:	4906      	ldr	r1, [pc, #24]	; (b68 <_ZN3GSM11GetNumLevelEPKc+0x68>)
     b50:	525a      	strh	r2, [r3, r1]
     b52:	3102      	adds	r1, #2
     b54:	545a      	strb	r2, [r3, r1]
     b56:	46c0      	nop			; (mov r8, r8)
     b58:	e7e4      	b.n	b24 <_ZN3GSM11GetNumLevelEPKc+0x24>
     b5a:	46c0      	nop			; (mov r8, r8)
     b5c:	00003039 	.word	0x00003039
     b60:	00000bb8 	.word	0x00000bb8
     b64:	000033e9 	.word	0x000033e9
     b68:	00000202 	.word	0x00000202

00000b6c <_ZN3GSM7SendSMSEPKcS1_>:
     b6c:	b530      	push	{r4, r5, lr}
     b6e:	0004      	movs	r4, r0
     b70:	b091      	sub	sp, #68	; 0x44
     b72:	000b      	movs	r3, r1
     b74:	0015      	movs	r5, r2
     b76:	2140      	movs	r1, #64	; 0x40
     b78:	4a10      	ldr	r2, [pc, #64]	; (bbc <_ZN3GSM7SendSMSEPKcS1_+0x50>)
     b7a:	4668      	mov	r0, sp
     b7c:	f001 fd04 	bl	2588 <sniprintf>
     b80:	2200      	movs	r2, #0
     b82:	4669      	mov	r1, sp
     b84:	0020      	movs	r0, r4
     b86:	4b0e      	ldr	r3, [pc, #56]	; (bc0 <_ZN3GSM7SendSMSEPKcS1_+0x54>)
     b88:	f7ff fcaa 	bl	4e0 <_ZN3GSM7CommandEPKcS1_j>
     b8c:	2800      	cmp	r0, #0
     b8e:	d012      	beq.n	bb6 <_ZN3GSM7SendSMSEPKcS1_+0x4a>
     b90:	0029      	movs	r1, r5
     b92:	68a0      	ldr	r0, [r4, #8]
     b94:	f7ff faca 	bl	12c <_ZN6uart_t5printEPKci.constprop.0>
     b98:	4b0a      	ldr	r3, [pc, #40]	; (bc4 <_ZN3GSM7SendSMSEPKcS1_+0x58>)
     b9a:	4a0b      	ldr	r2, [pc, #44]	; (bc8 <_ZN3GSM7SendSMSEPKcS1_+0x5c>)
     b9c:	490b      	ldr	r1, [pc, #44]	; (bcc <_ZN3GSM7SendSMSEPKcS1_+0x60>)
     b9e:	0020      	movs	r0, r4
     ba0:	f7ff fc9e 	bl	4e0 <_ZN3GSM7CommandEPKcS1_j>
     ba4:	2180      	movs	r1, #128	; 0x80
     ba6:	2200      	movs	r2, #0
     ba8:	68a3      	ldr	r3, [r4, #8]
     baa:	0089      	lsls	r1, r1, #2
     bac:	525a      	strh	r2, [r3, r1]
     bae:	4908      	ldr	r1, [pc, #32]	; (bd0 <_ZN3GSM7SendSMSEPKcS1_+0x64>)
     bb0:	525a      	strh	r2, [r3, r1]
     bb2:	3102      	adds	r1, #2
     bb4:	545a      	strb	r2, [r3, r1]
     bb6:	b011      	add	sp, #68	; 0x44
     bb8:	bd30      	pop	{r4, r5, pc}
     bba:	46c0      	nop			; (mov r8, r8)
     bbc:	00003053 	.word	0x00003053
     bc0:	00000bb8 	.word	0x00000bb8
     bc4:	0000ea60 	.word	0x0000ea60
     bc8:	00003060 	.word	0x00003060
     bcc:	00003066 	.word	0x00003066
     bd0:	00000202 	.word	0x00000202

00000bd4 <_ZN3GSM15cmd_SetFTPCredsEPKcS1_>:
     bd4:	b570      	push	{r4, r5, r6, lr}
     bd6:	0016      	movs	r6, r2
     bd8:	b090      	sub	sp, #64	; 0x40
     bda:	2200      	movs	r2, #0
     bdc:	4b14      	ldr	r3, [pc, #80]	; (c30 <_ZN3GSM15cmd_SetFTPCredsEPKcS1_+0x5c>)
     bde:	000d      	movs	r5, r1
     be0:	4914      	ldr	r1, [pc, #80]	; (c34 <_ZN3GSM15cmd_SetFTPCredsEPKcS1_+0x60>)
     be2:	0004      	movs	r4, r0
     be4:	f7ff fc7c 	bl	4e0 <_ZN3GSM7CommandEPKcS1_j>
     be8:	0030      	movs	r0, r6
     bea:	f001 fd3b 	bl	2664 <strlen>
     bee:	2140      	movs	r1, #64	; 0x40
     bf0:	0003      	movs	r3, r0
     bf2:	4a11      	ldr	r2, [pc, #68]	; (c38 <_ZN3GSM15cmd_SetFTPCredsEPKcS1_+0x64>)
     bf4:	4668      	mov	r0, sp
     bf6:	f001 fcc7 	bl	2588 <sniprintf>
     bfa:	4a10      	ldr	r2, [pc, #64]	; (c3c <_ZN3GSM15cmd_SetFTPCredsEPKcS1_+0x68>)
     bfc:	4669      	mov	r1, sp
     bfe:	0020      	movs	r0, r4
     c00:	4b0b      	ldr	r3, [pc, #44]	; (c30 <_ZN3GSM15cmd_SetFTPCredsEPKcS1_+0x5c>)
     c02:	f7ff fc6d 	bl	4e0 <_ZN3GSM7CommandEPKcS1_j>
     c06:	4a0e      	ldr	r2, [pc, #56]	; (c40 <_ZN3GSM15cmd_SetFTPCredsEPKcS1_+0x6c>)
     c08:	2800      	cmp	r0, #0
     c0a:	d00a      	beq.n	c22 <_ZN3GSM15cmd_SetFTPCredsEPKcS1_+0x4e>
     c0c:	0031      	movs	r1, r6
     c0e:	68a0      	ldr	r0, [r4, #8]
     c10:	f7ff fa8c 	bl	12c <_ZN6uart_t5printEPKci.constprop.0>
     c14:	2200      	movs	r2, #0
     c16:	0020      	movs	r0, r4
     c18:	4b05      	ldr	r3, [pc, #20]	; (c30 <_ZN3GSM15cmd_SetFTPCredsEPKcS1_+0x5c>)
     c1a:	490a      	ldr	r1, [pc, #40]	; (c44 <_ZN3GSM15cmd_SetFTPCredsEPKcS1_+0x70>)
     c1c:	f7ff fc60 	bl	4e0 <_ZN3GSM7CommandEPKcS1_j>
     c20:	4a09      	ldr	r2, [pc, #36]	; (c48 <_ZN3GSM15cmd_SetFTPCredsEPKcS1_+0x74>)
     c22:	0029      	movs	r1, r5
     c24:	0020      	movs	r0, r4
     c26:	f7ff ffa1 	bl	b6c <_ZN3GSM7SendSMSEPKcS1_>
     c2a:	b010      	add	sp, #64	; 0x40
     c2c:	bd70      	pop	{r4, r5, r6, pc}
     c2e:	46c0      	nop			; (mov r8, r8)
     c30:	00000bb8 	.word	0x00000bb8
     c34:	00003068 	.word	0x00003068
     c38:	0000307f 	.word	0x0000307f
     c3c:	00003127 	.word	0x00003127
     c40:	0000309c 	.word	0x0000309c
     c44:	000030a2 	.word	0x000030a2
     c48:	000033e9 	.word	0x000033e9

00000c4c <_ZL9func_execP3GSMPKcS2_>:
     c4c:	b570      	push	{r4, r5, r6, lr}
     c4e:	4b0f      	ldr	r3, [pc, #60]	; (c8c <_ZL9func_execP3GSMPKcS2_+0x40>)
     c50:	000e      	movs	r6, r1
     c52:	0011      	movs	r1, r2
     c54:	2200      	movs	r2, #0
     c56:	0004      	movs	r4, r0
     c58:	f7ff fc42 	bl	4e0 <_ZN3GSM7CommandEPKcS1_j>
     c5c:	4a0c      	ldr	r2, [pc, #48]	; (c90 <_ZL9func_execP3GSMPKcS2_+0x44>)
     c5e:	2800      	cmp	r0, #0
     c60:	d005      	beq.n	c6e <_ZL9func_execP3GSMPKcS2_+0x22>
     c62:	68a0      	ldr	r0, [r4, #8]
     c64:	f7ff fd58 	bl	718 <_ZN6uart_t4readEv>
     c68:	1e05      	subs	r5, r0, #0
     c6a:	d105      	bne.n	c78 <_ZL9func_execP3GSMPKcS2_+0x2c>
     c6c:	4a09      	ldr	r2, [pc, #36]	; (c94 <_ZL9func_execP3GSMPKcS2_+0x48>)
     c6e:	0031      	movs	r1, r6
     c70:	0020      	movs	r0, r4
     c72:	f7ff ff7b 	bl	b6c <_ZN3GSM7SendSMSEPKcS1_>
     c76:	bd70      	pop	{r4, r5, r6, pc}
     c78:	0002      	movs	r2, r0
     c7a:	0031      	movs	r1, r6
     c7c:	0020      	movs	r0, r4
     c7e:	f7ff ff75 	bl	b6c <_ZN3GSM7SendSMSEPKcS1_>
     c82:	0028      	movs	r0, r5
     c84:	f001 fb7e 	bl	2384 <free>
     c88:	e7f5      	b.n	c76 <_ZL9func_execP3GSMPKcS2_+0x2a>
     c8a:	46c0      	nop			; (mov r8, r8)
     c8c:	00000bb8 	.word	0x00000bb8
     c90:	000030a5 	.word	0x000030a5
     c94:	000030b7 	.word	0x000030b7

00000c98 <_ZL11func_delnumP3GSMPKcS2_>:
     c98:	b510      	push	{r4, lr}
     c9a:	0013      	movs	r3, r2
     c9c:	0004      	movs	r4, r0
     c9e:	b090      	sub	sp, #64	; 0x40
     ca0:	2a00      	cmp	r2, #0
     ca2:	d104      	bne.n	cae <_ZL11func_delnumP3GSMPKcS2_+0x16>
     ca4:	4a08      	ldr	r2, [pc, #32]	; (cc8 <_ZL11func_delnumP3GSMPKcS2_+0x30>)
     ca6:	f7ff ff61 	bl	b6c <_ZN3GSM7SendSMSEPKcS1_>
     caa:	b010      	add	sp, #64	; 0x40
     cac:	bd10      	pop	{r4, pc}
     cae:	2140      	movs	r1, #64	; 0x40
     cb0:	4668      	mov	r0, sp
     cb2:	4a06      	ldr	r2, [pc, #24]	; (ccc <_ZL11func_delnumP3GSMPKcS2_+0x34>)
     cb4:	f001 fc68 	bl	2588 <sniprintf>
     cb8:	2200      	movs	r2, #0
     cba:	4669      	mov	r1, sp
     cbc:	0020      	movs	r0, r4
     cbe:	4b04      	ldr	r3, [pc, #16]	; (cd0 <_ZL11func_delnumP3GSMPKcS2_+0x38>)
     cc0:	f7ff fc0e 	bl	4e0 <_ZN3GSM7CommandEPKcS1_j>
     cc4:	e7f1      	b.n	caa <_ZL11func_delnumP3GSMPKcS2_+0x12>
     cc6:	46c0      	nop			; (mov r8, r8)
     cc8:	000030d2 	.word	0x000030d2
     ccc:	000030e9 	.word	0x000030e9
     cd0:	00000bb8 	.word	0x00000bb8

00000cd4 <_ZZ4mainENUlP3GSMPKcS2_E_4_FUNES0_S2_S2_>:
     cd4:	b5f0      	push	{r4, r5, r6, r7, lr}
     cd6:	0005      	movs	r5, r0
     cd8:	000e      	movs	r6, r1
     cda:	0017      	movs	r7, r2
     cdc:	b08b      	sub	sp, #44	; 0x2c
     cde:	2a00      	cmp	r2, #0
     ce0:	d067      	beq.n	db2 <_ZZ4mainENUlP3GSMPKcS2_E_4_FUNES0_S2_S2_+0xde>
     ce2:	0010      	movs	r0, r2
     ce4:	f001 fcbe 	bl	2664 <strlen>
     ce8:	f001 fb42 	bl	2370 <malloc>
     cec:	1e04      	subs	r4, r0, #0
     cee:	d106      	bne.n	cfe <_ZZ4mainENUlP3GSMPKcS2_E_4_FUNES0_S2_S2_+0x2a>
     cf0:	0031      	movs	r1, r6
     cf2:	0028      	movs	r0, r5
     cf4:	4a38      	ldr	r2, [pc, #224]	; (dd8 <_ZZ4mainENUlP3GSMPKcS2_E_4_FUNES0_S2_S2_+0x104>)
     cf6:	f7ff ff39 	bl	b6c <_ZN3GSM7SendSMSEPKcS1_>
     cfa:	b00b      	add	sp, #44	; 0x2c
     cfc:	bdf0      	pop	{r4, r5, r6, r7, pc}
     cfe:	0039      	movs	r1, r7
     d00:	f001 fca8 	bl	2654 <strcpy>
     d04:	4935      	ldr	r1, [pc, #212]	; (ddc <_ZZ4mainENUlP3GSMPKcS2_E_4_FUNES0_S2_S2_+0x108>)
     d06:	0020      	movs	r0, r4
     d08:	f001 fa4c 	bl	21a4 <strtok>
     d0c:	4933      	ldr	r1, [pc, #204]	; (ddc <_ZZ4mainENUlP3GSMPKcS2_E_4_FUNES0_S2_S2_+0x108>)
     d0e:	0007      	movs	r7, r0
     d10:	2000      	movs	r0, #0
     d12:	f001 fa47 	bl	21a4 <strtok>
     d16:	9000      	str	r0, [sp, #0]
     d18:	2f00      	cmp	r7, #0
     d1a:	d04b      	beq.n	db4 <_ZZ4mainENUlP3GSMPKcS2_E_4_FUNES0_S2_S2_+0xe0>
     d1c:	2800      	cmp	r0, #0
     d1e:	d049      	beq.n	db4 <_ZZ4mainENUlP3GSMPKcS2_E_4_FUNES0_S2_S2_+0xe0>
     d20:	0038      	movs	r0, r7
     d22:	f001 f9fe 	bl	2122 <atoi>
     d26:	2800      	cmp	r0, #0
     d28:	d044      	beq.n	db4 <_ZZ4mainENUlP3GSMPKcS2_E_4_FUNES0_S2_S2_+0xe0>
     d2a:	0038      	movs	r0, r7
     d2c:	f001 f9f9 	bl	2122 <atoi>
     d30:	b243      	sxtb	r3, r0
     d32:	9301      	str	r3, [sp, #4]
     d34:	9a01      	ldr	r2, [sp, #4]
     d36:	ab02      	add	r3, sp, #8
     d38:	701a      	strb	r2, [r3, #0]
     d3a:	23ff      	movs	r3, #255	; 0xff
     d3c:	aa02      	add	r2, sp, #8
     d3e:	7253      	strb	r3, [r2, #9]
     d40:	3bfd      	subs	r3, #253	; 0xfd
     d42:	7293      	strb	r3, [r2, #10]
     d44:	ab02      	add	r3, sp, #8
     d46:	9900      	ldr	r1, [sp, #0]
     d48:	2208      	movs	r2, #8
     d4a:	1c58      	adds	r0, r3, #1
     d4c:	f001 fca2 	bl	2694 <strncpy>
     d50:	4f23      	ldr	r7, [pc, #140]	; (de0 <_ZZ4mainENUlP3GSMPKcS2_E_4_FUNES0_S2_S2_+0x10c>)
     d52:	6ab9      	ldr	r1, [r7, #40]	; 0x28
     d54:	2900      	cmp	r1, #0
     d56:	d028      	beq.n	daa <_ZZ4mainENUlP3GSMPKcS2_E_4_FUNES0_S2_S2_+0xd6>
     d58:	3101      	adds	r1, #1
     d5a:	6af8      	ldr	r0, [r7, #44]	; 0x2c
     d5c:	0149      	lsls	r1, r1, #5
     d5e:	f001 fc09 	bl	2574 <realloc>
     d62:	2800      	cmp	r0, #0
     d64:	d00a      	beq.n	d7c <_ZZ4mainENUlP3GSMPKcS2_E_4_FUNES0_S2_S2_+0xa8>
     d66:	6abb      	ldr	r3, [r7, #40]	; 0x28
     d68:	62f8      	str	r0, [r7, #44]	; 0x2c
     d6a:	015b      	lsls	r3, r3, #5
     d6c:	18c0      	adds	r0, r0, r3
     d6e:	2220      	movs	r2, #32
     d70:	a902      	add	r1, sp, #8
     d72:	f001 fbe7 	bl	2544 <memcpy>
     d76:	6abb      	ldr	r3, [r7, #40]	; 0x28
     d78:	3301      	adds	r3, #1
     d7a:	62bb      	str	r3, [r7, #40]	; 0x28
     d7c:	2224      	movs	r2, #36	; 0x24
     d7e:	4b18      	ldr	r3, [pc, #96]	; (de0 <_ZZ4mainENUlP3GSMPKcS2_E_4_FUNES0_S2_S2_+0x10c>)
     d80:	6b5f      	ldr	r7, [r3, #52]	; 0x34
     d82:	6b1b      	ldr	r3, [r3, #48]	; 0x30
     d84:	4353      	muls	r3, r2
     d86:	18fb      	adds	r3, r7, r3
     d88:	9300      	str	r3, [sp, #0]
     d8a:	9b00      	ldr	r3, [sp, #0]
     d8c:	42bb      	cmp	r3, r7
     d8e:	d01c      	beq.n	dca <_ZZ4mainENUlP3GSMPKcS2_E_4_FUNES0_S2_S2_+0xf6>
     d90:	2300      	movs	r3, #0
     d92:	9a01      	ldr	r2, [sp, #4]
     d94:	56fb      	ldrsb	r3, [r7, r3]
     d96:	4293      	cmp	r3, r2
     d98:	d105      	bne.n	da6 <_ZZ4mainENUlP3GSMPKcS2_E_4_FUNES0_S2_S2_+0xd2>
     d9a:	ab02      	add	r3, sp, #8
     d9c:	2208      	movs	r2, #8
     d9e:	1c78      	adds	r0, r7, #1
     da0:	1c59      	adds	r1, r3, #1
     da2:	f001 fc77 	bl	2694 <strncpy>
     da6:	3724      	adds	r7, #36	; 0x24
     da8:	e7ef      	b.n	d8a <_ZZ4mainENUlP3GSMPKcS2_E_4_FUNES0_S2_S2_+0xb6>
     daa:	2020      	movs	r0, #32
     dac:	f001 fae0 	bl	2370 <malloc>
     db0:	e7d7      	b.n	d62 <_ZZ4mainENUlP3GSMPKcS2_E_4_FUNES0_S2_S2_+0x8e>
     db2:	0014      	movs	r4, r2
     db4:	0031      	movs	r1, r6
     db6:	0028      	movs	r0, r5
     db8:	4a0a      	ldr	r2, [pc, #40]	; (de4 <_ZZ4mainENUlP3GSMPKcS2_E_4_FUNES0_S2_S2_+0x110>)
     dba:	f7ff fed7 	bl	b6c <_ZN3GSM7SendSMSEPKcS1_>
     dbe:	2c00      	cmp	r4, #0
     dc0:	d09b      	beq.n	cfa <_ZZ4mainENUlP3GSMPKcS2_E_4_FUNES0_S2_S2_+0x26>
     dc2:	0020      	movs	r0, r4
     dc4:	f001 fade 	bl	2384 <free>
     dc8:	e797      	b.n	cfa <_ZZ4mainENUlP3GSMPKcS2_E_4_FUNES0_S2_S2_+0x26>
     dca:	0031      	movs	r1, r6
     dcc:	0028      	movs	r0, r5
     dce:	4a06      	ldr	r2, [pc, #24]	; (de8 <_ZZ4mainENUlP3GSMPKcS2_E_4_FUNES0_S2_S2_+0x114>)
     dd0:	f7ff fecc 	bl	b6c <_ZN3GSM7SendSMSEPKcS1_>
     dd4:	e7f5      	b.n	dc2 <_ZZ4mainENUlP3GSMPKcS2_E_4_FUNES0_S2_S2_+0xee>
     dd6:	46c0      	nop			; (mov r8, r8)
     dd8:	000030fc 	.word	0x000030fc
     ddc:	000035ce 	.word	0x000035ce
     de0:	20000108 	.word	0x20000108
     de4:	0000310a 	.word	0x0000310a
     de8:	00003129 	.word	0x00003129

00000dec <_ZN3GSM8SetupFTPEv>:
     dec:	b5f7      	push	{r0, r1, r2, r4, r5, r6, r7, lr}
     dee:	4b32      	ldr	r3, [pc, #200]	; (eb8 <_ZN3GSM8SetupFTPEv+0xcc>)
     df0:	4a32      	ldr	r2, [pc, #200]	; (ebc <_ZN3GSM8SetupFTPEv+0xd0>)
     df2:	4933      	ldr	r1, [pc, #204]	; (ec0 <_ZN3GSM8SetupFTPEv+0xd4>)
     df4:	0004      	movs	r4, r0
     df6:	f7ff fb73 	bl	4e0 <_ZN3GSM7CommandEPKcS1_j>
     dfa:	9000      	str	r0, [sp, #0]
     dfc:	2800      	cmp	r0, #0
     dfe:	d103      	bne.n	e08 <_ZN3GSM8SetupFTPEv+0x1c>
     e00:	2300      	movs	r3, #0
     e02:	9300      	str	r3, [sp, #0]
     e04:	9800      	ldr	r0, [sp, #0]
     e06:	bdfe      	pop	{r1, r2, r3, r4, r5, r6, r7, pc}
     e08:	68a0      	ldr	r0, [r4, #8]
     e0a:	f7ff fb53 	bl	4b4 <_ZN6uart_t9availableEv>
     e0e:	2802      	cmp	r0, #2
     e10:	d9f6      	bls.n	e00 <_ZN3GSM8SetupFTPEv+0x14>
     e12:	68a0      	ldr	r0, [r4, #8]
     e14:	f7ff f956 	bl	c4 <_ZN6uart_t4getcEv>
     e18:	68a0      	ldr	r0, [r4, #8]
     e1a:	f7ff f953 	bl	c4 <_ZN6uart_t4getcEv>
     e1e:	68a0      	ldr	r0, [r4, #8]
     e20:	f7ff fc7a 	bl	718 <_ZN6uart_t4readEv>
     e24:	1e05      	subs	r5, r0, #0
     e26:	d0eb      	beq.n	e00 <_ZN3GSM8SetupFTPEv+0x14>
     e28:	4f26      	ldr	r7, [pc, #152]	; (ec4 <_ZN3GSM8SetupFTPEv+0xd8>)
     e2a:	0039      	movs	r1, r7
     e2c:	f001 f9ba 	bl	21a4 <strtok>
     e30:	0039      	movs	r1, r7
     e32:	0006      	movs	r6, r0
     e34:	2000      	movs	r0, #0
     e36:	f001 f9b5 	bl	21a4 <strtok>
     e3a:	4923      	ldr	r1, [pc, #140]	; (ec8 <_ZN3GSM8SetupFTPEv+0xdc>)
     e3c:	0007      	movs	r7, r0
     e3e:	2000      	movs	r0, #0
     e40:	f001 f9b0 	bl	21a4 <strtok>
     e44:	9001      	str	r0, [sp, #4]
     e46:	2e00      	cmp	r6, #0
     e48:	d003      	beq.n	e52 <_ZN3GSM8SetupFTPEv+0x66>
     e4a:	2f00      	cmp	r7, #0
     e4c:	d001      	beq.n	e52 <_ZN3GSM8SetupFTPEv+0x66>
     e4e:	2800      	cmp	r0, #0
     e50:	d103      	bne.n	e5a <_ZN3GSM8SetupFTPEv+0x6e>
     e52:	0028      	movs	r0, r5
     e54:	f001 fa96 	bl	2384 <free>
     e58:	e7d2      	b.n	e00 <_ZN3GSM8SetupFTPEv+0x14>
     e5a:	68a0      	ldr	r0, [r4, #8]
     e5c:	491b      	ldr	r1, [pc, #108]	; (ecc <_ZN3GSM8SetupFTPEv+0xe0>)
     e5e:	f7ff f965 	bl	12c <_ZN6uart_t5printEPKci.constprop.0>
     e62:	0031      	movs	r1, r6
     e64:	68a0      	ldr	r0, [r4, #8]
     e66:	f7ff f961 	bl	12c <_ZN6uart_t5printEPKci.constprop.0>
     e6a:	4e19      	ldr	r6, [pc, #100]	; (ed0 <_ZN3GSM8SetupFTPEv+0xe4>)
     e6c:	2200      	movs	r2, #0
     e6e:	4b12      	ldr	r3, [pc, #72]	; (eb8 <_ZN3GSM8SetupFTPEv+0xcc>)
     e70:	0031      	movs	r1, r6
     e72:	0020      	movs	r0, r4
     e74:	f7ff fb34 	bl	4e0 <_ZN3GSM7CommandEPKcS1_j>
     e78:	68a0      	ldr	r0, [r4, #8]
     e7a:	4916      	ldr	r1, [pc, #88]	; (ed4 <_ZN3GSM8SetupFTPEv+0xe8>)
     e7c:	f7ff f956 	bl	12c <_ZN6uart_t5printEPKci.constprop.0>
     e80:	0039      	movs	r1, r7
     e82:	68a0      	ldr	r0, [r4, #8]
     e84:	f7ff f952 	bl	12c <_ZN6uart_t5printEPKci.constprop.0>
     e88:	2200      	movs	r2, #0
     e8a:	4b0b      	ldr	r3, [pc, #44]	; (eb8 <_ZN3GSM8SetupFTPEv+0xcc>)
     e8c:	0031      	movs	r1, r6
     e8e:	0020      	movs	r0, r4
     e90:	f7ff fb26 	bl	4e0 <_ZN3GSM7CommandEPKcS1_j>
     e94:	68a0      	ldr	r0, [r4, #8]
     e96:	4910      	ldr	r1, [pc, #64]	; (ed8 <_ZN3GSM8SetupFTPEv+0xec>)
     e98:	f7ff f948 	bl	12c <_ZN6uart_t5printEPKci.constprop.0>
     e9c:	9901      	ldr	r1, [sp, #4]
     e9e:	68a0      	ldr	r0, [r4, #8]
     ea0:	f7ff f944 	bl	12c <_ZN6uart_t5printEPKci.constprop.0>
     ea4:	2200      	movs	r2, #0
     ea6:	0031      	movs	r1, r6
     ea8:	0020      	movs	r0, r4
     eaa:	4b03      	ldr	r3, [pc, #12]	; (eb8 <_ZN3GSM8SetupFTPEv+0xcc>)
     eac:	f7ff fb18 	bl	4e0 <_ZN3GSM7CommandEPKcS1_j>
     eb0:	0028      	movs	r0, r5
     eb2:	f001 fa67 	bl	2384 <free>
     eb6:	e7a5      	b.n	e04 <_ZN3GSM8SetupFTPEv+0x18>
     eb8:	00000bb8 	.word	0x00000bb8
     ebc:	000033e9 	.word	0x000033e9
     ec0:	00003138 	.word	0x00003138
     ec4:	000035ce 	.word	0x000035ce
     ec8:	00003154 	.word	0x00003154
     ecc:	00003157 	.word	0x00003157
     ed0:	000030a4 	.word	0x000030a4
     ed4:	00003163 	.word	0x00003163
     ed8:	0000316d 	.word	0x0000316d

00000edc <_ZL11func_updateP3GSMPKcS2_>:
     edc:	b5f0      	push	{r4, r5, r6, r7, lr}
     ede:	2500      	movs	r5, #0
     ee0:	4b73      	ldr	r3, [pc, #460]	; (10b0 <_ZL11func_updateP3GSMPKcS2_+0x1d4>)
     ee2:	b089      	sub	sp, #36	; 0x24
     ee4:	0004      	movs	r4, r0
     ee6:	000e      	movs	r6, r1
     ee8:	9306      	str	r3, [sp, #24]
     eea:	9507      	str	r5, [sp, #28]
     eec:	f7ff ff7e 	bl	dec <_ZN3GSM8SetupFTPEv>
     ef0:	42a8      	cmp	r0, r5
     ef2:	d02a      	beq.n	f4a <_ZL11func_updateP3GSMPKcS2_+0x6e>
     ef4:	002a      	movs	r2, r5
     ef6:	4b6f      	ldr	r3, [pc, #444]	; (10b4 <_ZL11func_updateP3GSMPKcS2_+0x1d8>)
     ef8:	496f      	ldr	r1, [pc, #444]	; (10b8 <_ZL11func_updateP3GSMPKcS2_+0x1dc>)
     efa:	0020      	movs	r0, r4
     efc:	f7ff faf0 	bl	4e0 <_ZN3GSM7CommandEPKcS1_j>
     f00:	002a      	movs	r2, r5
     f02:	4b6c      	ldr	r3, [pc, #432]	; (10b4 <_ZL11func_updateP3GSMPKcS2_+0x1d8>)
     f04:	496d      	ldr	r1, [pc, #436]	; (10bc <_ZL11func_updateP3GSMPKcS2_+0x1e0>)
     f06:	0020      	movs	r0, r4
     f08:	f7ff faea 	bl	4e0 <_ZN3GSM7CommandEPKcS1_j>
     f0c:	002a      	movs	r2, r5
     f0e:	0020      	movs	r0, r4
     f10:	4b68      	ldr	r3, [pc, #416]	; (10b4 <_ZL11func_updateP3GSMPKcS2_+0x1d8>)
     f12:	496b      	ldr	r1, [pc, #428]	; (10c0 <_ZL11func_updateP3GSMPKcS2_+0x1e4>)
     f14:	f7ff fae4 	bl	4e0 <_ZN3GSM7CommandEPKcS1_j>
     f18:	0020      	movs	r0, r4
     f1a:	f7ff fb67 	bl	5ec <_ZN3GSM12InitInternetEv>
     f1e:	42a8      	cmp	r0, r5
     f20:	d013      	beq.n	f4a <_ZL11func_updateP3GSMPKcS2_+0x6e>
     f22:	002a      	movs	r2, r5
     f24:	4b63      	ldr	r3, [pc, #396]	; (10b4 <_ZL11func_updateP3GSMPKcS2_+0x1d8>)
     f26:	4967      	ldr	r1, [pc, #412]	; (10c4 <_ZL11func_updateP3GSMPKcS2_+0x1e8>)
     f28:	0020      	movs	r0, r4
     f2a:	f7ff fad9 	bl	4e0 <_ZN3GSM7CommandEPKcS1_j>
     f2e:	4b66      	ldr	r3, [pc, #408]	; (10c8 <_ZL11func_updateP3GSMPKcS2_+0x1ec>)
     f30:	4a66      	ldr	r2, [pc, #408]	; (10cc <_ZL11func_updateP3GSMPKcS2_+0x1f0>)
     f32:	4967      	ldr	r1, [pc, #412]	; (10d0 <_ZL11func_updateP3GSMPKcS2_+0x1f4>)
     f34:	0020      	movs	r0, r4
     f36:	f7ff fad3 	bl	4e0 <_ZN3GSM7CommandEPKcS1_j>
     f3a:	4966      	ldr	r1, [pc, #408]	; (10d4 <_ZL11func_updateP3GSMPKcS2_+0x1f8>)
     f3c:	0002      	movs	r2, r0
     f3e:	4b5d      	ldr	r3, [pc, #372]	; (10b4 <_ZL11func_updateP3GSMPKcS2_+0x1d8>)
     f40:	42a8      	cmp	r0, r5
     f42:	d10c      	bne.n	f5e <_ZL11func_updateP3GSMPKcS2_+0x82>
     f44:	0020      	movs	r0, r4
     f46:	f7ff facb 	bl	4e0 <_ZN3GSM7CommandEPKcS1_j>
     f4a:	a806      	add	r0, sp, #24
     f4c:	f7ff fba1 	bl	692 <_ZN3StrD1Ev>
     f50:	0031      	movs	r1, r6
     f52:	0020      	movs	r0, r4
     f54:	4a60      	ldr	r2, [pc, #384]	; (10d8 <_ZL11func_updateP3GSMPKcS2_+0x1fc>)
     f56:	f7ff fe09 	bl	b6c <_ZN3GSM7SendSMSEPKcS1_>
     f5a:	b009      	add	sp, #36	; 0x24
     f5c:	bdf0      	pop	{r4, r5, r6, r7, pc}
     f5e:	002a      	movs	r2, r5
     f60:	0020      	movs	r0, r4
     f62:	f7ff fabd 	bl	4e0 <_ZN3GSM7CommandEPKcS1_j>
     f66:	b672      	cpsid	i
     f68:	2180      	movs	r1, #128	; 0x80
     f6a:	4b5c      	ldr	r3, [pc, #368]	; (10dc <_ZL11func_updateP3GSMPKcS2_+0x200>)
     f6c:	685a      	ldr	r2, [r3, #4]
     f6e:	438a      	bics	r2, r1
     f70:	605a      	str	r2, [r3, #4]
     f72:	2280      	movs	r2, #128	; 0x80
     f74:	0052      	lsls	r2, r2, #1
     f76:	9502      	str	r5, [sp, #8]
     f78:	9203      	str	r2, [sp, #12]
     f7a:	9304      	str	r3, [sp, #16]
     f7c:	9b02      	ldr	r3, [sp, #8]
     f7e:	9a04      	ldr	r2, [sp, #16]
     f80:	019b      	lsls	r3, r3, #6
     f82:	9300      	str	r3, [sp, #0]
     f84:	085b      	lsrs	r3, r3, #1
     f86:	61d3      	str	r3, [r2, #28]
     f88:	4b55      	ldr	r3, [pc, #340]	; (10e0 <_ZL11func_updateP3GSMPKcS2_+0x204>)
     f8a:	9a04      	ldr	r2, [sp, #16]
     f8c:	8013      	strh	r3, [r2, #0]
     f8e:	4e55      	ldr	r6, [pc, #340]	; (10e4 <_ZL11func_updateP3GSMPKcS2_+0x208>)
     f90:	0035      	movs	r5, r6
     f92:	7831      	ldrb	r1, [r6, #0]
     f94:	2900      	cmp	r1, #0
     f96:	d004      	beq.n	fa2 <_ZL11func_updateP3GSMPKcS2_+0xc6>
     f98:	0020      	movs	r0, r4
     f9a:	3601      	adds	r6, #1
     f9c:	f002 fb50 	bl	3640 <___ZN3GSM13RAMFunc_writeEc_veneer>
     fa0:	e7f7      	b.n	f92 <_ZL11func_updateP3GSMPKcS2_+0xb6>
     fa2:	466b      	mov	r3, sp
     fa4:	881f      	ldrh	r7, [r3, #0]
     fa6:	2305      	movs	r3, #5
     fa8:	3528      	adds	r5, #40	; 0x28
     faa:	882a      	ldrh	r2, [r5, #0]
     fac:	001e      	movs	r6, r3
     fae:	3b01      	subs	r3, #1
     fb0:	b2db      	uxtb	r3, r3
     fb2:	42ba      	cmp	r2, r7
     fb4:	d80c      	bhi.n	fd0 <_ZL11func_updateP3GSMPKcS2_+0xf4>
     fb6:	3e01      	subs	r6, #1
     fb8:	b2f6      	uxtb	r6, r6
     fba:	2eff      	cmp	r6, #255	; 0xff
     fbc:	d012      	beq.n	fe4 <_ZL11func_updateP3GSMPKcS2_+0x108>
     fbe:	2130      	movs	r1, #48	; 0x30
     fc0:	882b      	ldrh	r3, [r5, #0]
     fc2:	42bb      	cmp	r3, r7
     fc4:	d809      	bhi.n	fda <_ZL11func_updateP3GSMPKcS2_+0xfe>
     fc6:	1aff      	subs	r7, r7, r3
     fc8:	3101      	adds	r1, #1
     fca:	b2bf      	uxth	r7, r7
     fcc:	b2c9      	uxtb	r1, r1
     fce:	e7f8      	b.n	fc2 <_ZL11func_updateP3GSMPKcS2_+0xe6>
     fd0:	3502      	adds	r5, #2
     fd2:	2b01      	cmp	r3, #1
     fd4:	d1e9      	bne.n	faa <_ZL11func_updateP3GSMPKcS2_+0xce>
     fd6:	001e      	movs	r6, r3
     fd8:	e7ed      	b.n	fb6 <_ZL11func_updateP3GSMPKcS2_+0xda>
     fda:	0020      	movs	r0, r4
     fdc:	f002 fb30 	bl	3640 <___ZN3GSM13RAMFunc_writeEc_veneer>
     fe0:	3502      	adds	r5, #2
     fe2:	e7e8      	b.n	fb6 <_ZL11func_updateP3GSMPKcS2_+0xda>
     fe4:	2582      	movs	r5, #130	; 0x82
     fe6:	210d      	movs	r1, #13
     fe8:	0020      	movs	r0, r4
     fea:	f002 fb29 	bl	3640 <___ZN3GSM13RAMFunc_writeEc_veneer>
     fee:	0020      	movs	r0, r4
     ff0:	f002 fb16 	bl	3620 <___ZN3GSM15RAMFunc_wait_rxEv_veneer>
     ff4:	68a3      	ldr	r3, [r4, #8]
     ff6:	00ad      	lsls	r5, r5, #2
     ff8:	595b      	ldr	r3, [r3, r5]
     ffa:	0020      	movs	r0, r4
     ffc:	8d1b      	ldrh	r3, [r3, #40]	; 0x28
     ffe:	f002 fb0f 	bl	3620 <___ZN3GSM15RAMFunc_wait_rxEv_veneer>
    1002:	2000      	movs	r0, #0
    1004:	68a3      	ldr	r3, [r4, #8]
    1006:	2701      	movs	r7, #1
    1008:	595b      	ldr	r3, [r3, r5]
    100a:	0005      	movs	r5, r0
    100c:	8d1b      	ldrh	r3, [r3, #40]	; 0x28
    100e:	9b00      	ldr	r3, [sp, #0]
    1010:	3b03      	subs	r3, #3
    1012:	9305      	str	r3, [sp, #20]
    1014:	2800      	cmp	r0, #0
    1016:	d104      	bne.n	1022 <_ZL11func_updateP3GSMPKcS2_+0x146>
    1018:	0020      	movs	r0, r4
    101a:	f002 fb01 	bl	3620 <___ZN3GSM15RAMFunc_wait_rxEv_veneer>
    101e:	4078      	eors	r0, r7
    1020:	b2c0      	uxtb	r0, r0
    1022:	2303      	movs	r3, #3
    1024:	002a      	movs	r2, r5
    1026:	401a      	ands	r2, r3
    1028:	00d1      	lsls	r1, r2, #3
    102a:	33fc      	adds	r3, #252	; 0xfc
    102c:	408b      	lsls	r3, r1
    102e:	9e01      	ldr	r6, [sp, #4]
    1030:	439e      	bics	r6, r3
    1032:	9601      	str	r6, [sp, #4]
    1034:	2800      	cmp	r0, #0
    1036:	d109      	bne.n	104c <_ZL11func_updateP3GSMPKcS2_+0x170>
    1038:	2382      	movs	r3, #130	; 0x82
    103a:	68a6      	ldr	r6, [r4, #8]
    103c:	009b      	lsls	r3, r3, #2
    103e:	58f3      	ldr	r3, [r6, r3]
    1040:	8d1b      	ldrh	r3, [r3, #40]	; 0x28
    1042:	b2db      	uxtb	r3, r3
    1044:	408b      	lsls	r3, r1
    1046:	9901      	ldr	r1, [sp, #4]
    1048:	4319      	orrs	r1, r3
    104a:	9101      	str	r1, [sp, #4]
    104c:	2a03      	cmp	r2, #3
    104e:	d102      	bne.n	1056 <_ZL11func_updateP3GSMPKcS2_+0x17a>
    1050:	9b05      	ldr	r3, [sp, #20]
    1052:	9a01      	ldr	r2, [sp, #4]
    1054:	515a      	str	r2, [r3, r5]
    1056:	3501      	adds	r5, #1
    1058:	2d40      	cmp	r5, #64	; 0x40
    105a:	d1db      	bne.n	1014 <_ZL11func_updateP3GSMPKcS2_+0x138>
    105c:	2800      	cmp	r0, #0
    105e:	d11e      	bne.n	109e <_ZL11func_updateP3GSMPKcS2_+0x1c2>
    1060:	35c9      	adds	r5, #201	; 0xc9
    1062:	35ff      	adds	r5, #255	; 0xff
    1064:	0020      	movs	r0, r4
    1066:	f002 fadb 	bl	3620 <___ZN3GSM15RAMFunc_wait_rxEv_veneer>
    106a:	2800      	cmp	r0, #0
    106c:	d003      	beq.n	1076 <_ZL11func_updateP3GSMPKcS2_+0x19a>
    106e:	68a3      	ldr	r3, [r4, #8]
    1070:	595b      	ldr	r3, [r3, r5]
    1072:	8d1b      	ldrh	r3, [r3, #40]	; 0x28
    1074:	e7f6      	b.n	1064 <_ZL11func_updateP3GSMPKcS2_+0x188>
    1076:	9b00      	ldr	r3, [sp, #0]
    1078:	9a03      	ldr	r2, [sp, #12]
    107a:	3340      	adds	r3, #64	; 0x40
    107c:	9300      	str	r3, [sp, #0]
    107e:	4293      	cmp	r3, r2
    1080:	d000      	beq.n	1084 <_ZL11func_updateP3GSMPKcS2_+0x1a8>
    1082:	e784      	b.n	f8e <_ZL11func_updateP3GSMPKcS2_+0xb2>
    1084:	9b03      	ldr	r3, [sp, #12]
    1086:	3301      	adds	r3, #1
    1088:	33ff      	adds	r3, #255	; 0xff
    108a:	9303      	str	r3, [sp, #12]
    108c:	9b02      	ldr	r3, [sp, #8]
    108e:	3304      	adds	r3, #4
    1090:	9302      	str	r3, [sp, #8]
    1092:	2380      	movs	r3, #128	; 0x80
    1094:	9a02      	ldr	r2, [sp, #8]
    1096:	005b      	lsls	r3, r3, #1
    1098:	429a      	cmp	r2, r3
    109a:	d000      	beq.n	109e <_ZL11func_updateP3GSMPKcS2_+0x1c2>
    109c:	e76e      	b.n	f7c <_ZL11func_updateP3GSMPKcS2_+0xa0>
    109e:	f3bf 8f4f 	dsb	sy
    10a2:	4b11      	ldr	r3, [pc, #68]	; (10e8 <_ZL11func_updateP3GSMPKcS2_+0x20c>)
    10a4:	4a11      	ldr	r2, [pc, #68]	; (10ec <_ZL11func_updateP3GSMPKcS2_+0x210>)
    10a6:	60da      	str	r2, [r3, #12]
    10a8:	f3bf 8f4f 	dsb	sy
    10ac:	e7fe      	b.n	10ac <_ZL11func_updateP3GSMPKcS2_+0x1d0>
    10ae:	46c0      	nop			; (mov r8, r8)
    10b0:	00002f34 	.word	0x00002f34
    10b4:	00000bb8 	.word	0x00000bb8
    10b8:	00002fd0 	.word	0x00002fd0
    10bc:	00003177 	.word	0x00003177
    10c0:	00003187 	.word	0x00003187
    10c4:	000031a0 	.word	0x000031a0
    10c8:	000124f8 	.word	0x000124f8
    10cc:	000031bb 	.word	0x000031bb
    10d0:	000030a4 	.word	0x000030a4
    10d4:	00003014 	.word	0x00003014
    10d8:	000031cb 	.word	0x000031cb
    10dc:	41004000 	.word	0x41004000
    10e0:	ffffa502 	.word	0xffffa502
    10e4:	20000048 	.word	0x20000048
    10e8:	e000ed00 	.word	0xe000ed00
    10ec:	05fa0004 	.word	0x05fa0004

000010f0 <_ZL11func_setnumP3GSMPKcS2_>:
    10f0:	b5f0      	push	{r4, r5, r6, r7, lr}
    10f2:	0004      	movs	r4, r0
    10f4:	000e      	movs	r6, r1
    10f6:	0017      	movs	r7, r2
    10f8:	b093      	sub	sp, #76	; 0x4c
    10fa:	2a00      	cmp	r2, #0
    10fc:	d04c      	beq.n	1198 <_ZL11func_setnumP3GSMPKcS2_+0xa8>
    10fe:	0010      	movs	r0, r2
    1100:	f001 fab0 	bl	2664 <strlen>
    1104:	f001 f934 	bl	2370 <malloc>
    1108:	1e05      	subs	r5, r0, #0
    110a:	d106      	bne.n	111a <_ZL11func_setnumP3GSMPKcS2_+0x2a>
    110c:	0031      	movs	r1, r6
    110e:	0020      	movs	r0, r4
    1110:	4a26      	ldr	r2, [pc, #152]	; (11ac <_ZL11func_setnumP3GSMPKcS2_+0xbc>)
    1112:	f7ff fd2b 	bl	b6c <_ZN3GSM7SendSMSEPKcS1_>
    1116:	b013      	add	sp, #76	; 0x4c
    1118:	bdf0      	pop	{r4, r5, r6, r7, pc}
    111a:	0039      	movs	r1, r7
    111c:	f001 fa9a 	bl	2654 <strcpy>
    1120:	4f23      	ldr	r7, [pc, #140]	; (11b0 <_ZL11func_setnumP3GSMPKcS2_+0xc0>)
    1122:	0028      	movs	r0, r5
    1124:	0039      	movs	r1, r7
    1126:	f001 f83d 	bl	21a4 <strtok>
    112a:	0039      	movs	r1, r7
    112c:	9001      	str	r0, [sp, #4]
    112e:	2000      	movs	r0, #0
    1130:	f001 f838 	bl	21a4 <strtok>
    1134:	9b01      	ldr	r3, [sp, #4]
    1136:	2b00      	cmp	r3, #0
    1138:	d02f      	beq.n	119a <_ZL11func_setnumP3GSMPKcS2_+0xaa>
    113a:	2800      	cmp	r0, #0
    113c:	d02d      	beq.n	119a <_ZL11func_setnumP3GSMPKcS2_+0xaa>
    113e:	2140      	movs	r1, #64	; 0x40
    1140:	7807      	ldrb	r7, [r0, #0]
    1142:	4a1c      	ldr	r2, [pc, #112]	; (11b4 <_ZL11func_setnumP3GSMPKcS2_+0xc4>)
    1144:	a802      	add	r0, sp, #8
    1146:	f001 fa1f 	bl	2588 <sniprintf>
    114a:	2200      	movs	r2, #0
    114c:	4b1a      	ldr	r3, [pc, #104]	; (11b8 <_ZL11func_setnumP3GSMPKcS2_+0xc8>)
    114e:	a902      	add	r1, sp, #8
    1150:	0020      	movs	r0, r4
    1152:	f7ff f9c5 	bl	4e0 <_ZN3GSM7CommandEPKcS1_j>
    1156:	2140      	movs	r1, #64	; 0x40
    1158:	9b01      	ldr	r3, [sp, #4]
    115a:	4a18      	ldr	r2, [pc, #96]	; (11bc <_ZL11func_setnumP3GSMPKcS2_+0xcc>)
    115c:	a802      	add	r0, sp, #8
    115e:	f001 fa13 	bl	2588 <sniprintf>
    1162:	0020      	movs	r0, r4
    1164:	4b14      	ldr	r3, [pc, #80]	; (11b8 <_ZL11func_setnumP3GSMPKcS2_+0xc8>)
    1166:	4a16      	ldr	r2, [pc, #88]	; (11c0 <_ZL11func_setnumP3GSMPKcS2_+0xd0>)
    1168:	a902      	add	r1, sp, #8
    116a:	f7ff f9b9 	bl	4e0 <_ZN3GSM7CommandEPKcS1_j>
    116e:	2800      	cmp	r0, #0
    1170:	d009      	beq.n	1186 <_ZL11func_setnumP3GSMPKcS2_+0x96>
    1172:	0039      	movs	r1, r7
    1174:	68a0      	ldr	r0, [r4, #8]
    1176:	f7fe ffc9 	bl	10c <_ZN6uart_t5writeEc>
    117a:	2200      	movs	r2, #0
    117c:	0020      	movs	r0, r4
    117e:	4b0e      	ldr	r3, [pc, #56]	; (11b8 <_ZL11func_setnumP3GSMPKcS2_+0xc8>)
    1180:	4910      	ldr	r1, [pc, #64]	; (11c4 <_ZL11func_setnumP3GSMPKcS2_+0xd4>)
    1182:	f7ff f9ad 	bl	4e0 <_ZN3GSM7CommandEPKcS1_j>
    1186:	0031      	movs	r1, r6
    1188:	0020      	movs	r0, r4
    118a:	4a0f      	ldr	r2, [pc, #60]	; (11c8 <_ZL11func_setnumP3GSMPKcS2_+0xd8>)
    118c:	f7ff fcee 	bl	b6c <_ZN3GSM7SendSMSEPKcS1_>
    1190:	0028      	movs	r0, r5
    1192:	f001 f8f7 	bl	2384 <free>
    1196:	e7be      	b.n	1116 <_ZL11func_setnumP3GSMPKcS2_+0x26>
    1198:	0015      	movs	r5, r2
    119a:	0031      	movs	r1, r6
    119c:	0020      	movs	r0, r4
    119e:	4a0b      	ldr	r2, [pc, #44]	; (11cc <_ZL11func_setnumP3GSMPKcS2_+0xdc>)
    11a0:	f7ff fce4 	bl	b6c <_ZN3GSM7SendSMSEPKcS1_>
    11a4:	2d00      	cmp	r5, #0
    11a6:	d0b6      	beq.n	1116 <_ZL11func_setnumP3GSMPKcS2_+0x26>
    11a8:	e7f2      	b.n	1190 <_ZL11func_setnumP3GSMPKcS2_+0xa0>
    11aa:	46c0      	nop			; (mov r8, r8)
    11ac:	000030fc 	.word	0x000030fc
    11b0:	000035ce 	.word	0x000035ce
    11b4:	000031d9 	.word	0x000031d9
    11b8:	00000bb8 	.word	0x00000bb8
    11bc:	000031ef 	.word	0x000031ef
    11c0:	00003127 	.word	0x00003127
    11c4:	000030a2 	.word	0x000030a2
    11c8:	000033e9 	.word	0x000033e9
    11cc:	0000320a 	.word	0x0000320a

000011d0 <_ZN3Str7appendfEPKcz>:
    11d0:	b40e      	push	{r1, r2, r3}
    11d2:	b5f3      	push	{r0, r1, r4, r5, r6, r7, lr}
    11d4:	ac07      	add	r4, sp, #28
    11d6:	0005      	movs	r5, r0
    11d8:	cc80      	ldmia	r4!, {r7}
    11da:	6800      	ldr	r0, [r0, #0]
    11dc:	9400      	str	r4, [sp, #0]
    11de:	f001 fa41 	bl	2664 <strlen>
    11e2:	79eb      	ldrb	r3, [r5, #7]
    11e4:	0006      	movs	r6, r0
    11e6:	9401      	str	r4, [sp, #4]
    11e8:	2b7f      	cmp	r3, #127	; 0x7f
    11ea:	d923      	bls.n	1234 <_ZN3Str7appendfEPKcz+0x64>
    11ec:	682b      	ldr	r3, [r5, #0]
    11ee:	1818      	adds	r0, r3, r0
    11f0:	686b      	ldr	r3, [r5, #4]
    11f2:	02d9      	lsls	r1, r3, #11
    11f4:	0ac9      	lsrs	r1, r1, #11
    11f6:	1b89      	subs	r1, r1, r6
    11f8:	0023      	movs	r3, r4
    11fa:	003a      	movs	r2, r7
    11fc:	f001 faa0 	bl	2740 <vsniprintf>
    1200:	686b      	ldr	r3, [r5, #4]
    1202:	1831      	adds	r1, r6, r0
    1204:	02db      	lsls	r3, r3, #11
    1206:	0004      	movs	r4, r0
    1208:	0adb      	lsrs	r3, r3, #11
    120a:	4299      	cmp	r1, r3
    120c:	db0d      	blt.n	122a <_ZN3Str7appendfEPKcz+0x5a>
    120e:	3101      	adds	r1, #1
    1210:	428b      	cmp	r3, r1
    1212:	da02      	bge.n	121a <_ZN3Str7appendfEPKcz+0x4a>
    1214:	0028      	movs	r0, r5
    1216:	f7ff fbd1 	bl	9bc <_ZN3Str7reserveEi.part.0>
    121a:	6828      	ldr	r0, [r5, #0]
    121c:	1c61      	adds	r1, r4, #1
    121e:	003a      	movs	r2, r7
    1220:	9b01      	ldr	r3, [sp, #4]
    1222:	1980      	adds	r0, r0, r6
    1224:	f001 fa8c 	bl	2740 <vsniprintf>
    1228:	0004      	movs	r4, r0
    122a:	0020      	movs	r0, r4
    122c:	bcf6      	pop	{r1, r2, r4, r5, r6, r7}
    122e:	bc08      	pop	{r3}
    1230:	b003      	add	sp, #12
    1232:	4718      	bx	r3
    1234:	2000      	movs	r0, #0
    1236:	0001      	movs	r1, r0
    1238:	e7de      	b.n	11f8 <_ZN3Str7appendfEPKcz+0x28>

0000123a <_ZL8cmd_infoP3GSMPKcS2_>:
    123a:	b5f0      	push	{r4, r5, r6, r7, lr}
    123c:	4b26      	ldr	r3, [pc, #152]	; (12d8 <_ZL8cmd_infoP3GSMPKcS2_+0x9e>)
    123e:	b089      	sub	sp, #36	; 0x24
    1240:	9306      	str	r3, [sp, #24]
    1242:	2300      	movs	r3, #0
    1244:	0005      	movs	r5, r0
    1246:	a806      	add	r0, sp, #24
    1248:	9307      	str	r3, [sp, #28]
    124a:	000e      	movs	r6, r1
    124c:	f7ff fa2f 	bl	6ae <_ZN3Str3setEPKc.constprop.0>
    1250:	2224      	movs	r2, #36	; 0x24
    1252:	27fa      	movs	r7, #250	; 0xfa
    1254:	4b21      	ldr	r3, [pc, #132]	; (12dc <_ZL8cmd_infoP3GSMPKcS2_+0xa2>)
    1256:	00bf      	lsls	r7, r7, #2
    1258:	6b5c      	ldr	r4, [r3, #52]	; 0x34
    125a:	6b1b      	ldr	r3, [r3, #48]	; 0x30
    125c:	4353      	muls	r3, r2
    125e:	18e3      	adds	r3, r4, r3
    1260:	9305      	str	r3, [sp, #20]
    1262:	9b05      	ldr	r3, [sp, #20]
    1264:	42a3      	cmp	r3, r4
    1266:	d02c      	beq.n	12c2 <_ZL8cmd_infoP3GSMPKcS2_+0x88>
    1268:	2300      	movs	r3, #0
    126a:	56e3      	ldrsb	r3, [r4, r3]
    126c:	9303      	str	r3, [sp, #12]
    126e:	7a63      	ldrb	r3, [r4, #9]
    1270:	9304      	str	r3, [sp, #16]
    1272:	f7fe ff95 	bl	1a0 <millis>
    1276:	6a23      	ldr	r3, [r4, #32]
    1278:	0039      	movs	r1, r7
    127a:	1ac0      	subs	r0, r0, r3
    127c:	f001 fd9c 	bl	2db8 <__udivsi3>
    1280:	9b04      	ldr	r3, [sp, #16]
    1282:	9001      	str	r0, [sp, #4]
    1284:	9300      	str	r3, [sp, #0]
    1286:	9a03      	ldr	r2, [sp, #12]
    1288:	1c63      	adds	r3, r4, #1
    128a:	4915      	ldr	r1, [pc, #84]	; (12e0 <_ZL8cmd_infoP3GSMPKcS2_+0xa6>)
    128c:	a806      	add	r0, sp, #24
    128e:	f7ff ff9f 	bl	11d0 <_ZN3Str7appendfEPKcz>
    1292:	7a63      	ldrb	r3, [r4, #9]
    1294:	2b02      	cmp	r3, #2
    1296:	d009      	beq.n	12ac <_ZL8cmd_infoP3GSMPKcS2_+0x72>
    1298:	2b03      	cmp	r3, #3
    129a:	d00f      	beq.n	12bc <_ZL8cmd_infoP3GSMPKcS2_+0x82>
    129c:	2b01      	cmp	r3, #1
    129e:	d10b      	bne.n	12b8 <_ZL8cmd_infoP3GSMPKcS2_+0x7e>
    12a0:	8962      	ldrh	r2, [r4, #10]
    12a2:	4910      	ldr	r1, [pc, #64]	; (12e4 <_ZL8cmd_infoP3GSMPKcS2_+0xaa>)
    12a4:	a806      	add	r0, sp, #24
    12a6:	f7ff ff93 	bl	11d0 <_ZN3Str7appendfEPKcz>
    12aa:	e005      	b.n	12b8 <_ZL8cmd_infoP3GSMPKcS2_+0x7e>
    12ac:	89a3      	ldrh	r3, [r4, #12]
    12ae:	8962      	ldrh	r2, [r4, #10]
    12b0:	490d      	ldr	r1, [pc, #52]	; (12e8 <_ZL8cmd_infoP3GSMPKcS2_+0xae>)
    12b2:	a806      	add	r0, sp, #24
    12b4:	f7ff ff8c 	bl	11d0 <_ZN3Str7appendfEPKcz>
    12b8:	3424      	adds	r4, #36	; 0x24
    12ba:	e7d2      	b.n	1262 <_ZL8cmd_infoP3GSMPKcS2_+0x28>
    12bc:	8962      	ldrh	r2, [r4, #10]
    12be:	490b      	ldr	r1, [pc, #44]	; (12ec <_ZL8cmd_infoP3GSMPKcS2_+0xb2>)
    12c0:	e7f0      	b.n	12a4 <_ZL8cmd_infoP3GSMPKcS2_+0x6a>
    12c2:	0031      	movs	r1, r6
    12c4:	9a06      	ldr	r2, [sp, #24]
    12c6:	0028      	movs	r0, r5
    12c8:	f7ff fc50 	bl	b6c <_ZN3GSM7SendSMSEPKcS1_>
    12cc:	a806      	add	r0, sp, #24
    12ce:	f7ff f9e0 	bl	692 <_ZN3StrD1Ev>
    12d2:	b009      	add	sp, #36	; 0x24
    12d4:	bdf0      	pop	{r4, r5, r6, r7, pc}
    12d6:	46c0      	nop			; (mov r8, r8)
    12d8:	00002f34 	.word	0x00002f34
    12dc:	20000108 	.word	0x20000108
    12e0:	00003229 	.word	0x00003229
    12e4:	00003263 	.word	0x00003263
    12e8:	0000328a 	.word	0x0000328a
    12ec:	000032cc 	.word	0x000032cc

000012f0 <_ZL12func_listcmdP3GSMPKcS2_>:
    12f0:	b5f7      	push	{r0, r1, r2, r4, r5, r6, r7, lr}
    12f2:	4b0f      	ldr	r3, [pc, #60]	; (1330 <_ZL12func_listcmdP3GSMPKcS2_+0x40>)
    12f4:	260c      	movs	r6, #12
    12f6:	9300      	str	r3, [sp, #0]
    12f8:	2300      	movs	r3, #0
    12fa:	9301      	str	r3, [sp, #4]
    12fc:	68c3      	ldr	r3, [r0, #12]
    12fe:	0005      	movs	r5, r0
    1300:	435e      	muls	r6, r3
    1302:	6903      	ldr	r3, [r0, #16]
    1304:	000f      	movs	r7, r1
    1306:	001c      	movs	r4, r3
    1308:	199e      	adds	r6, r3, r6
    130a:	42a6      	cmp	r6, r4
    130c:	d006      	beq.n	131c <_ZL12func_listcmdP3GSMPKcS2_+0x2c>
    130e:	6822      	ldr	r2, [r4, #0]
    1310:	4668      	mov	r0, sp
    1312:	4908      	ldr	r1, [pc, #32]	; (1334 <_ZL12func_listcmdP3GSMPKcS2_+0x44>)
    1314:	f7ff ff5c 	bl	11d0 <_ZN3Str7appendfEPKcz>
    1318:	340c      	adds	r4, #12
    131a:	e7f6      	b.n	130a <_ZL12func_listcmdP3GSMPKcS2_+0x1a>
    131c:	0039      	movs	r1, r7
    131e:	0028      	movs	r0, r5
    1320:	9a00      	ldr	r2, [sp, #0]
    1322:	f7ff fc23 	bl	b6c <_ZN3GSM7SendSMSEPKcS1_>
    1326:	4668      	mov	r0, sp
    1328:	f7ff f9b3 	bl	692 <_ZN3StrD1Ev>
    132c:	bdf7      	pop	{r0, r1, r2, r4, r5, r6, r7, pc}
    132e:	46c0      	nop			; (mov r8, r8)
    1330:	00002f34 	.word	0x00002f34
    1334:	000032f4 	.word	0x000032f4

00001338 <_ZN3GSM9GetAllNumEP6VectorIPcE>:
    1338:	b5f7      	push	{r0, r1, r2, r4, r5, r6, r7, lr}
    133a:	4b2a      	ldr	r3, [pc, #168]	; (13e4 <_ZN3GSM9GetAllNumEP6VectorIPcE+0xac>)
    133c:	000d      	movs	r5, r1
    133e:	2200      	movs	r2, #0
    1340:	4929      	ldr	r1, [pc, #164]	; (13e8 <_ZN3GSM9GetAllNumEP6VectorIPcE+0xb0>)
    1342:	0004      	movs	r4, r0
    1344:	f7ff f8cc 	bl	4e0 <_ZN3GSM7CommandEPKcS1_j>
    1348:	2800      	cmp	r0, #0
    134a:	d102      	bne.n	1352 <_ZN3GSM9GetAllNumEP6VectorIPcE+0x1a>
    134c:	2700      	movs	r7, #0
    134e:	0038      	movs	r0, r7
    1350:	bdfe      	pop	{r1, r2, r3, r4, r5, r6, r7, pc}
    1352:	68a0      	ldr	r0, [r4, #8]
    1354:	f7ff f9e0 	bl	718 <_ZN6uart_t4readEv>
    1358:	1e06      	subs	r6, r0, #0
    135a:	d0f7      	beq.n	134c <_ZN3GSM9GetAllNumEP6VectorIPcE+0x14>
    135c:	4923      	ldr	r1, [pc, #140]	; (13ec <_ZN3GSM9GetAllNumEP6VectorIPcE+0xb4>)
    135e:	f000 ff21 	bl	21a4 <strtok>
    1362:	2700      	movs	r7, #0
    1364:	0004      	movs	r4, r0
    1366:	2c00      	cmp	r4, #0
    1368:	d038      	beq.n	13dc <_ZN3GSM9GetAllNumEP6VectorIPcE+0xa4>
    136a:	0020      	movs	r0, r4
    136c:	f001 f97a 	bl	2664 <strlen>
    1370:	9001      	str	r0, [sp, #4]
    1372:	2804      	cmp	r0, #4
    1374:	d928      	bls.n	13c8 <_ZN3GSM9GetAllNumEP6VectorIPcE+0x90>
    1376:	3804      	subs	r0, #4
    1378:	491d      	ldr	r1, [pc, #116]	; (13f0 <_ZN3GSM9GetAllNumEP6VectorIPcE+0xb8>)
    137a:	1820      	adds	r0, r4, r0
    137c:	f001 f960 	bl	2640 <strcmp>
    1380:	2800      	cmp	r0, #0
    1382:	d121      	bne.n	13c8 <_ZN3GSM9GetAllNumEP6VectorIPcE+0x90>
    1384:	3701      	adds	r7, #1
    1386:	2d00      	cmp	r5, #0
    1388:	d01e      	beq.n	13c8 <_ZN3GSM9GetAllNumEP6VectorIPcE+0x90>
    138a:	9801      	ldr	r0, [sp, #4]
    138c:	2101      	movs	r1, #1
    138e:	3803      	subs	r0, #3
    1390:	f001 f8ce 	bl	2530 <calloc>
    1394:	9001      	str	r0, [sp, #4]
    1396:	0020      	movs	r0, r4
    1398:	f001 f964 	bl	2664 <strlen>
    139c:	0021      	movs	r1, r4
    139e:	1f02      	subs	r2, r0, #4
    13a0:	9801      	ldr	r0, [sp, #4]
    13a2:	f001 f8cf 	bl	2544 <memcpy>
    13a6:	6829      	ldr	r1, [r5, #0]
    13a8:	2900      	cmp	r1, #0
    13aa:	d013      	beq.n	13d4 <_ZN3GSM9GetAllNumEP6VectorIPcE+0x9c>
    13ac:	3101      	adds	r1, #1
    13ae:	6868      	ldr	r0, [r5, #4]
    13b0:	0089      	lsls	r1, r1, #2
    13b2:	f001 f8df 	bl	2574 <realloc>
    13b6:	2800      	cmp	r0, #0
    13b8:	d006      	beq.n	13c8 <_ZN3GSM9GetAllNumEP6VectorIPcE+0x90>
    13ba:	682b      	ldr	r3, [r5, #0]
    13bc:	9901      	ldr	r1, [sp, #4]
    13be:	009a      	lsls	r2, r3, #2
    13c0:	3301      	adds	r3, #1
    13c2:	6068      	str	r0, [r5, #4]
    13c4:	5011      	str	r1, [r2, r0]
    13c6:	602b      	str	r3, [r5, #0]
    13c8:	2000      	movs	r0, #0
    13ca:	4908      	ldr	r1, [pc, #32]	; (13ec <_ZN3GSM9GetAllNumEP6VectorIPcE+0xb4>)
    13cc:	f000 feea 	bl	21a4 <strtok>
    13d0:	0004      	movs	r4, r0
    13d2:	e7c8      	b.n	1366 <_ZN3GSM9GetAllNumEP6VectorIPcE+0x2e>
    13d4:	2004      	movs	r0, #4
    13d6:	f000 ffcb 	bl	2370 <malloc>
    13da:	e7ec      	b.n	13b6 <_ZN3GSM9GetAllNumEP6VectorIPcE+0x7e>
    13dc:	0030      	movs	r0, r6
    13de:	f000 ffd1 	bl	2384 <free>
    13e2:	e7b4      	b.n	134e <_ZN3GSM9GetAllNumEP6VectorIPcE+0x16>
    13e4:	00000bb8 	.word	0x00000bb8
    13e8:	000032f8 	.word	0x000032f8
    13ec:	000030a2 	.word	0x000030a2
    13f0:	0000346c 	.word	0x0000346c

000013f4 <_ZL12func_listnumP3GSMPKcS2_>:
    13f4:	b5f0      	push	{r4, r5, r6, r7, lr}
    13f6:	2400      	movs	r4, #0
    13f8:	0005      	movs	r5, r0
    13fa:	b087      	sub	sp, #28
    13fc:	4b19      	ldr	r3, [pc, #100]	; (1464 <_ZL12func_listnumP3GSMPKcS2_+0x70>)
    13fe:	a804      	add	r0, sp, #16
    1400:	9304      	str	r3, [sp, #16]
    1402:	000e      	movs	r6, r1
    1404:	9405      	str	r4, [sp, #20]
    1406:	f7ff f952 	bl	6ae <_ZN3Str3setEPKc.constprop.0>
    140a:	0028      	movs	r0, r5
    140c:	a902      	add	r1, sp, #8
    140e:	9402      	str	r4, [sp, #8]
    1410:	9403      	str	r4, [sp, #12]
    1412:	f7ff ff91 	bl	1338 <_ZN3GSM9GetAllNumEP6VectorIPcE>
    1416:	9a03      	ldr	r2, [sp, #12]
    1418:	9b02      	ldr	r3, [sp, #8]
    141a:	0014      	movs	r4, r2
    141c:	009b      	lsls	r3, r3, #2
    141e:	18d3      	adds	r3, r2, r3
    1420:	9301      	str	r3, [sp, #4]
    1422:	9b01      	ldr	r3, [sp, #4]
    1424:	42a3      	cmp	r3, r4
    1426:	d00e      	beq.n	1446 <_ZL12func_listnumP3GSMPKcS2_+0x52>
    1428:	cc80      	ldmia	r4!, {r7}
    142a:	0028      	movs	r0, r5
    142c:	0039      	movs	r1, r7
    142e:	f7ff fb67 	bl	b00 <_ZN3GSM11GetNumLevelEPKc>
    1432:	003a      	movs	r2, r7
    1434:	0003      	movs	r3, r0
    1436:	490c      	ldr	r1, [pc, #48]	; (1468 <_ZL12func_listnumP3GSMPKcS2_+0x74>)
    1438:	a804      	add	r0, sp, #16
    143a:	f7ff fec9 	bl	11d0 <_ZN3Str7appendfEPKcz>
    143e:	0038      	movs	r0, r7
    1440:	f000 ffa0 	bl	2384 <free>
    1444:	e7ed      	b.n	1422 <_ZL12func_listnumP3GSMPKcS2_+0x2e>
    1446:	0031      	movs	r1, r6
    1448:	0028      	movs	r0, r5
    144a:	9a04      	ldr	r2, [sp, #16]
    144c:	f7ff fb8e 	bl	b6c <_ZN3GSM7SendSMSEPKcS1_>
    1450:	9803      	ldr	r0, [sp, #12]
    1452:	2800      	cmp	r0, #0
    1454:	d001      	beq.n	145a <_ZL12func_listnumP3GSMPKcS2_+0x66>
    1456:	f000 ff95 	bl	2384 <free>
    145a:	a804      	add	r0, sp, #16
    145c:	f7ff f919 	bl	692 <_ZN3StrD1Ev>
    1460:	b007      	add	sp, #28
    1462:	bdf0      	pop	{r4, r5, r6, r7, pc}
    1464:	00002f34 	.word	0x00002f34
    1468:	00003304 	.word	0x00003304

0000146c <_exit>:
    146c:	e7fe      	b.n	146c <_exit>

0000146e <_sbrk>:
    146e:	4a05      	ldr	r2, [pc, #20]	; (1484 <_sbrk+0x16>)
    1470:	0003      	movs	r3, r0
    1472:	6d91      	ldr	r1, [r2, #88]	; 0x58
    1474:	2900      	cmp	r1, #0
    1476:	d101      	bne.n	147c <_sbrk+0xe>
    1478:	4903      	ldr	r1, [pc, #12]	; (1488 <_sbrk+0x1a>)
    147a:	6591      	str	r1, [r2, #88]	; 0x58
    147c:	6d90      	ldr	r0, [r2, #88]	; 0x58
    147e:	18c3      	adds	r3, r0, r3
    1480:	6593      	str	r3, [r2, #88]	; 0x58
    1482:	4770      	bx	lr
    1484:	20000108 	.word	0x20000108
    1488:	20000594 	.word	0x20000594

0000148c <AC_Handler>:
    148c:	e7fe      	b.n	148c <AC_Handler>

0000148e <SERCOM1_Handler>:
    148e:	b510      	push	{r4, lr}
    1490:	4801      	ldr	r0, [pc, #4]	; (1498 <SERCOM1_Handler+0xa>)
    1492:	f7fe fe5d 	bl	150 <_ZN6uart_t14sercom_handlerEv>
    1496:	bd10      	pop	{r4, pc}
    1498:	20000370 	.word	0x20000370

0000149c <SERCOM0_Handler>:
    149c:	b510      	push	{r4, lr}
    149e:	4802      	ldr	r0, [pc, #8]	; (14a8 <SERCOM0_Handler+0xc>)
    14a0:	f7fe fe56 	bl	150 <_ZN6uart_t14sercom_handlerEv>
    14a4:	bd10      	pop	{r4, pc}
    14a6:	46c0      	nop			; (mov r8, r8)
    14a8:	20000164 	.word	0x20000164

000014ac <SysTick_Handler>:
    14ac:	b530      	push	{r4, r5, lr}
    14ae:	2480      	movs	r4, #128	; 0x80
    14b0:	2500      	movs	r5, #0
    14b2:	4904      	ldr	r1, [pc, #16]	; (14c4 <SysTick_Handler+0x18>)
    14b4:	0464      	lsls	r4, r4, #17
    14b6:	6b8a      	ldr	r2, [r1, #56]	; 0x38
    14b8:	6bcb      	ldr	r3, [r1, #60]	; 0x3c
    14ba:	1912      	adds	r2, r2, r4
    14bc:	416b      	adcs	r3, r5
    14be:	638a      	str	r2, [r1, #56]	; 0x38
    14c0:	63cb      	str	r3, [r1, #60]	; 0x3c
    14c2:	bd30      	pop	{r4, r5, pc}
    14c4:	20000108 	.word	0x20000108

000014c8 <RTC_Handler>:
    14c8:	2201      	movs	r2, #1
    14ca:	4b03      	ldr	r3, [pc, #12]	; (14d8 <RTC_Handler+0x10>)
    14cc:	721a      	strb	r2, [r3, #8]
    14ce:	4a03      	ldr	r2, [pc, #12]	; (14dc <RTC_Handler+0x14>)
    14d0:	6b53      	ldr	r3, [r2, #52]	; 0x34
    14d2:	3301      	adds	r3, #1
    14d4:	6353      	str	r3, [r2, #52]	; 0x34
    14d6:	4770      	bx	lr
    14d8:	40001400 	.word	0x40001400
    14dc:	20000048 	.word	0x20000048

000014e0 <Reset_Handler>:
    14e0:	4a5f      	ldr	r2, [pc, #380]	; (1660 <Reset_Handler+0x180>)
    14e2:	4b60      	ldr	r3, [pc, #384]	; (1664 <Reset_Handler+0x184>)
    14e4:	b570      	push	{r4, r5, r6, lr}
    14e6:	4960      	ldr	r1, [pc, #384]	; (1668 <Reset_Handler+0x188>)
    14e8:	429a      	cmp	r2, r3
    14ea:	d000      	beq.n	14ee <Reset_Handler+0xe>
    14ec:	e0b3      	b.n	1656 <Reset_Handler+0x176>
    14ee:	2100      	movs	r1, #0
    14f0:	4b5e      	ldr	r3, [pc, #376]	; (166c <Reset_Handler+0x18c>)
    14f2:	4a5f      	ldr	r2, [pc, #380]	; (1670 <Reset_Handler+0x190>)
    14f4:	4293      	cmp	r3, r2
    14f6:	d200      	bcs.n	14fa <Reset_Handler+0x1a>
    14f8:	e0b0      	b.n	165c <Reset_Handler+0x17c>
    14fa:	227f      	movs	r2, #127	; 0x7f
    14fc:	4b5d      	ldr	r3, [pc, #372]	; (1674 <Reset_Handler+0x194>)
    14fe:	2030      	movs	r0, #48	; 0x30
    1500:	4393      	bics	r3, r2
    1502:	4a5d      	ldr	r2, [pc, #372]	; (1678 <Reset_Handler+0x198>)
    1504:	2403      	movs	r4, #3
    1506:	6093      	str	r3, [r2, #8]
    1508:	2202      	movs	r2, #2
    150a:	4b5c      	ldr	r3, [pc, #368]	; (167c <Reset_Handler+0x19c>)
    150c:	625a      	str	r2, [r3, #36]	; 0x24
    150e:	4b5c      	ldr	r3, [pc, #368]	; (1680 <Reset_Handler+0x1a0>)
    1510:	7b99      	ldrb	r1, [r3, #14]
    1512:	4381      	bics	r1, r0
    1514:	0008      	movs	r0, r1
    1516:	2120      	movs	r1, #32
    1518:	4301      	orrs	r1, r0
    151a:	200c      	movs	r0, #12
    151c:	7399      	strb	r1, [r3, #14]
    151e:	7b99      	ldrb	r1, [r3, #14]
    1520:	4381      	bics	r1, r0
    1522:	3804      	subs	r0, #4
    1524:	4301      	orrs	r1, r0
    1526:	7399      	strb	r1, [r3, #14]
    1528:	7b99      	ldrb	r1, [r3, #14]
    152a:	43a1      	bics	r1, r4
    152c:	4311      	orrs	r1, r2
    152e:	7399      	strb	r1, [r3, #14]
    1530:	2380      	movs	r3, #128	; 0x80
    1532:	4954      	ldr	r1, [pc, #336]	; (1684 <Reset_Handler+0x1a4>)
    1534:	684c      	ldr	r4, [r1, #4]
    1536:	4323      	orrs	r3, r4
    1538:	24c0      	movs	r4, #192	; 0xc0
    153a:	604b      	str	r3, [r1, #4]
    153c:	4b52      	ldr	r3, [pc, #328]	; (1688 <Reset_Handler+0x1a8>)
    153e:	00a4      	lsls	r4, r4, #2
    1540:	6a1d      	ldr	r5, [r3, #32]
    1542:	432c      	orrs	r4, r5
    1544:	251e      	movs	r5, #30
    1546:	621c      	str	r4, [r3, #32]
    1548:	684c      	ldr	r4, [r1, #4]
    154a:	43ac      	bics	r4, r5
    154c:	4322      	orrs	r2, r4
    154e:	604a      	str	r2, [r1, #4]
    1550:	4a4e      	ldr	r2, [pc, #312]	; (168c <Reset_Handler+0x1ac>)
    1552:	6991      	ldr	r1, [r2, #24]
    1554:	4308      	orrs	r0, r1
    1556:	2101      	movs	r1, #1
    1558:	6190      	str	r0, [r2, #24]
    155a:	4a4d      	ldr	r2, [pc, #308]	; (1690 <Reset_Handler+0x1b0>)
    155c:	7810      	ldrb	r0, [r2, #0]
    155e:	4301      	orrs	r1, r0
    1560:	7011      	strb	r1, [r2, #0]
    1562:	7811      	ldrb	r1, [r2, #0]
    1564:	07c9      	lsls	r1, r1, #31
    1566:	d502      	bpl.n	156e <Reset_Handler+0x8e>
    1568:	7851      	ldrb	r1, [r2, #1]
    156a:	09c9      	lsrs	r1, r1, #7
    156c:	d1f9      	bne.n	1562 <Reset_Handler+0x82>
    156e:	2080      	movs	r0, #128	; 0x80
    1570:	6a19      	ldr	r1, [r3, #32]
    1572:	4381      	bics	r1, r0
    1574:	6219      	str	r1, [r3, #32]
    1576:	4947      	ldr	r1, [pc, #284]	; (1694 <Reset_Handler+0x1b4>)
    1578:	6091      	str	r1, [r2, #8]
    157a:	4947      	ldr	r1, [pc, #284]	; (1698 <Reset_Handler+0x1b8>)
    157c:	6051      	str	r1, [r2, #4]
    157e:	7851      	ldrb	r1, [r2, #1]
    1580:	09c9      	lsrs	r1, r1, #7
    1582:	d1fc      	bne.n	157e <Reset_Handler+0x9e>
    1584:	2186      	movs	r1, #134	; 0x86
    1586:	01c9      	lsls	r1, r1, #7
    1588:	8051      	strh	r1, [r2, #2]
    158a:	7851      	ldrb	r1, [r2, #1]
    158c:	09c9      	lsrs	r1, r1, #7
    158e:	d1fc      	bne.n	158a <Reset_Handler+0xaa>
    1590:	2080      	movs	r0, #128	; 0x80
    1592:	8c99      	ldrh	r1, [r3, #36]	; 0x24
    1594:	4381      	bics	r1, r0
    1596:	8499      	strh	r1, [r3, #36]	; 0x24
    1598:	68d9      	ldr	r1, [r3, #12]
    159a:	06c9      	lsls	r1, r1, #27
    159c:	d5fc      	bpl.n	1598 <Reset_Handler+0xb8>
    159e:	20c0      	movs	r0, #192	; 0xc0
    15a0:	6ad9      	ldr	r1, [r3, #44]	; 0x2c
    15a2:	0100      	lsls	r0, r0, #4
    15a4:	0c09      	lsrs	r1, r1, #16
    15a6:	0409      	lsls	r1, r1, #16
    15a8:	4301      	orrs	r1, r0
    15aa:	2080      	movs	r0, #128	; 0x80
    15ac:	62d9      	str	r1, [r3, #44]	; 0x2c
    15ae:	6ad9      	ldr	r1, [r3, #44]	; 0x2c
    15b0:	04c0      	lsls	r0, r0, #19
    15b2:	0189      	lsls	r1, r1, #6
    15b4:	0989      	lsrs	r1, r1, #6
    15b6:	4301      	orrs	r1, r0
    15b8:	62d9      	str	r1, [r3, #44]	; 0x2c
    15ba:	6ad9      	ldr	r1, [r3, #44]	; 0x2c
    15bc:	4837      	ldr	r0, [pc, #220]	; (169c <Reset_Handler+0x1bc>)
    15be:	4008      	ands	r0, r1
    15c0:	2180      	movs	r1, #128	; 0x80
    15c2:	0249      	lsls	r1, r1, #9
    15c4:	4301      	orrs	r1, r0
    15c6:	62d9      	str	r1, [r3, #44]	; 0x2c
    15c8:	68d9      	ldr	r1, [r3, #12]
    15ca:	06c9      	lsls	r1, r1, #27
    15cc:	d5fc      	bpl.n	15c8 <Reset_Handler+0xe8>
    15ce:	2181      	movs	r1, #129	; 0x81
    15d0:	8c98      	ldrh	r0, [r3, #36]	; 0x24
    15d2:	0089      	lsls	r1, r1, #2
    15d4:	4301      	orrs	r1, r0
    15d6:	8499      	strh	r1, [r3, #36]	; 0x24
    15d8:	68d9      	ldr	r1, [r3, #12]
    15da:	06c9      	lsls	r1, r1, #27
    15dc:	d5fc      	bpl.n	15d8 <Reset_Handler+0xf8>
    15de:	2180      	movs	r1, #128	; 0x80
    15e0:	6898      	ldr	r0, [r3, #8]
    15e2:	4301      	orrs	r1, r0
    15e4:	6099      	str	r1, [r3, #8]
    15e6:	2140      	movs	r1, #64	; 0x40
    15e8:	6898      	ldr	r0, [r3, #8]
    15ea:	4301      	orrs	r1, r0
    15ec:	6099      	str	r1, [r3, #8]
    15ee:	2110      	movs	r1, #16
    15f0:	6898      	ldr	r0, [r3, #8]
    15f2:	4301      	orrs	r1, r0
    15f4:	6099      	str	r1, [r3, #8]
    15f6:	2102      	movs	r1, #2
    15f8:	8c98      	ldrh	r0, [r3, #36]	; 0x24
    15fa:	4301      	orrs	r1, r0
    15fc:	8499      	strh	r1, [r3, #36]	; 0x24
    15fe:	68d9      	ldr	r1, [r3, #12]
    1600:	06c9      	lsls	r1, r1, #27
    1602:	d5fc      	bpl.n	15fe <Reset_Handler+0x11e>
    1604:	6899      	ldr	r1, [r3, #8]
    1606:	0609      	lsls	r1, r1, #24
    1608:	d402      	bmi.n	1610 <Reset_Handler+0x130>
    160a:	6899      	ldr	r1, [r3, #8]
    160c:	0649      	lsls	r1, r1, #25
    160e:	d5f9      	bpl.n	1604 <Reset_Handler+0x124>
    1610:	6899      	ldr	r1, [r3, #8]
    1612:	06c9      	lsls	r1, r1, #27
    1614:	d5fc      	bpl.n	1610 <Reset_Handler+0x130>
    1616:	2300      	movs	r3, #0
    1618:	6093      	str	r3, [r2, #8]
    161a:	7853      	ldrb	r3, [r2, #1]
    161c:	09db      	lsrs	r3, r3, #7
    161e:	d1fc      	bne.n	161a <Reset_Handler+0x13a>
    1620:	4b1f      	ldr	r3, [pc, #124]	; (16a0 <Reset_Handler+0x1c0>)
    1622:	6053      	str	r3, [r2, #4]
    1624:	7851      	ldrb	r1, [r2, #1]
    1626:	09c9      	lsrs	r1, r1, #7
    1628:	d1fc      	bne.n	1624 <Reset_Handler+0x144>
    162a:	2400      	movs	r4, #0
    162c:	2500      	movs	r5, #0
    162e:	4b1d      	ldr	r3, [pc, #116]	; (16a4 <Reset_Handler+0x1c4>)
    1630:	4a1d      	ldr	r2, [pc, #116]	; (16a8 <Reset_Handler+0x1c8>)
    1632:	639c      	str	r4, [r3, #56]	; 0x38
    1634:	63dd      	str	r5, [r3, #60]	; 0x3c
    1636:	4b1d      	ldr	r3, [pc, #116]	; (16ac <Reset_Handler+0x1cc>)
    1638:	6019      	str	r1, [r3, #0]
    163a:	605a      	str	r2, [r3, #4]
    163c:	609a      	str	r2, [r3, #8]
    163e:	2207      	movs	r2, #7
    1640:	601a      	str	r2, [r3, #0]
    1642:	2280      	movs	r2, #128	; 0x80
    1644:	4b1a      	ldr	r3, [pc, #104]	; (16b0 <Reset_Handler+0x1d0>)
    1646:	0612      	lsls	r2, r2, #24
    1648:	601a      	str	r2, [r3, #0]
    164a:	f000 fd7f 	bl	214c <__libc_init_array>
    164e:	f000 f8d9 	bl	1804 <main>
    1652:	ca01      	ldmia	r2!, {r0}
    1654:	c301      	stmia	r3!, {r0}
    1656:	428b      	cmp	r3, r1
    1658:	d3fb      	bcc.n	1652 <Reset_Handler+0x172>
    165a:	e748      	b.n	14ee <Reset_Handler+0xe>
    165c:	c302      	stmia	r3!, {r1}
    165e:	e749      	b.n	14f4 <Reset_Handler+0x14>
    1660:	00003654 	.word	0x00003654
    1664:	20000000 	.word	0x20000000
    1668:	200000e4 	.word	0x200000e4
    166c:	200000e8 	.word	0x200000e8
    1670:	20000594 	.word	0x20000594
    1674:	00000000 	.word	0x00000000
    1678:	e000ed00 	.word	0xe000ed00
    167c:	410070fc 	.word	0x410070fc
    1680:	41004800 	.word	0x41004800
    1684:	41004000 	.word	0x41004000
    1688:	40000800 	.word	0x40000800
    168c:	40000400 	.word	0x40000400
    1690:	40000c00 	.word	0x40000c00
    1694:	00004003 	.word	0x00004003
    1698:	00010603 	.word	0x00010603
    169c:	fc00ffff 	.word	0xfc00ffff
    16a0:	00030700 	.word	0x00030700
    16a4:	20000108 	.word	0x20000108
    16a8:	00ffffff 	.word	0x00ffffff
    16ac:	e000e010 	.word	0xe000e010
    16b0:	e000e100 	.word	0xe000e100

000016b4 <_GLOBAL__I_65535_0_GSM.cpp.obj.9388>:
    16b4:	b5f0      	push	{r4, r5, r6, r7, lr}
    16b6:	2182      	movs	r1, #130	; 0x82
    16b8:	2780      	movs	r7, #128	; 0x80
    16ba:	2481      	movs	r4, #129	; 0x81
    16bc:	2600      	movs	r6, #0
    16be:	4b44      	ldr	r3, [pc, #272]	; (17d0 <_GLOBAL__I_65535_0_GSM.cpp.obj.9388+0x11c>)
    16c0:	4d44      	ldr	r5, [pc, #272]	; (17d4 <_GLOBAL__I_65535_0_GSM.cpp.obj.9388+0x120>)
    16c2:	4845      	ldr	r0, [pc, #276]	; (17d8 <_GLOBAL__I_65535_0_GSM.cpp.obj.9388+0x124>)
    16c4:	4a45      	ldr	r2, [pc, #276]	; (17dc <_GLOBAL__I_65535_0_GSM.cpp.obj.9388+0x128>)
    16c6:	00bf      	lsls	r7, r7, #2
    16c8:	00a4      	lsls	r4, r4, #2
    16ca:	0089      	lsls	r1, r1, #2
    16cc:	53de      	strh	r6, [r3, r7]
    16ce:	541e      	strb	r6, [r3, r0]
    16d0:	535e      	strh	r6, [r3, r5]
    16d2:	505a      	str	r2, [r3, r1]
    16d4:	551e      	strb	r6, [r3, r4]
    16d6:	4b42      	ldr	r3, [pc, #264]	; (17e0 <_GLOBAL__I_65535_0_GSM.cpp.obj.9388+0x12c>)
    16d8:	b087      	sub	sp, #28
    16da:	53de      	strh	r6, [r3, r7]
    16dc:	541e      	strb	r6, [r3, r0]
    16de:	535e      	strh	r6, [r3, r5]
    16e0:	4840      	ldr	r0, [pc, #256]	; (17e4 <_GLOBAL__I_65535_0_GSM.cpp.obj.9388+0x130>)
    16e2:	4d41      	ldr	r5, [pc, #260]	; (17e8 <_GLOBAL__I_65535_0_GSM.cpp.obj.9388+0x134>)
    16e4:	551e      	strb	r6, [r3, r4]
    16e6:	5058      	str	r0, [r3, r1]
    16e8:	64ab      	str	r3, [r5, #72]	; 0x48
    16ea:	4b40      	ldr	r3, [pc, #256]	; (17ec <_GLOBAL__I_65535_0_GSM.cpp.obj.9388+0x138>)
    16ec:	2104      	movs	r1, #4
    16ee:	2402      	movs	r4, #2
    16f0:	0018      	movs	r0, r3
    16f2:	656a      	str	r2, [r5, #84]	; 0x54
    16f4:	646c      	str	r4, [r5, #68]	; 0x44
    16f6:	642e      	str	r6, [r5, #64]	; 0x40
    16f8:	64ee      	str	r6, [r5, #76]	; 0x4c
    16fa:	652e      	str	r6, [r5, #80]	; 0x50
    16fc:	3042      	adds	r0, #66	; 0x42
    16fe:	6099      	str	r1, [r3, #8]
    1700:	7802      	ldrb	r2, [r0, #0]
    1702:	43a2      	bics	r2, r4
    1704:	ac03      	add	r4, sp, #12
    1706:	7002      	strb	r2, [r0, #0]
    1708:	0022      	movs	r2, r4
    170a:	6199      	str	r1, [r3, #24]
    170c:	4b38      	ldr	r3, [pc, #224]	; (17f0 <_GLOBAL__I_65535_0_GSM.cpp.obj.9388+0x13c>)
    170e:	3308      	adds	r3, #8
    1710:	cb83      	ldmia	r3!, {r0, r1, r7}
    1712:	c283      	stmia	r2!, {r0, r1, r7}
    1714:	002f      	movs	r7, r5
    1716:	374c      	adds	r7, #76	; 0x4c
    1718:	0038      	movs	r0, r7
    171a:	0021      	movs	r1, r4
    171c:	9701      	str	r7, [sp, #4]
    171e:	f7ff f863 	bl	7e8 <_ZN6VectorI7SMSFuncE9push_backERKS0_>
    1722:	0022      	movs	r2, r4
    1724:	4b32      	ldr	r3, [pc, #200]	; (17f0 <_GLOBAL__I_65535_0_GSM.cpp.obj.9388+0x13c>)
    1726:	3314      	adds	r3, #20
    1728:	cb83      	ldmia	r3!, {r0, r1, r7}
    172a:	c283      	stmia	r2!, {r0, r1, r7}
    172c:	0021      	movs	r1, r4
    172e:	9801      	ldr	r0, [sp, #4]
    1730:	f7ff f85a 	bl	7e8 <_ZN6VectorI7SMSFuncE9push_backERKS0_>
    1734:	0022      	movs	r2, r4
    1736:	4b2e      	ldr	r3, [pc, #184]	; (17f0 <_GLOBAL__I_65535_0_GSM.cpp.obj.9388+0x13c>)
    1738:	3320      	adds	r3, #32
    173a:	cb83      	ldmia	r3!, {r0, r1, r7}
    173c:	c283      	stmia	r2!, {r0, r1, r7}
    173e:	0021      	movs	r1, r4
    1740:	9801      	ldr	r0, [sp, #4]
    1742:	f7ff f851 	bl	7e8 <_ZN6VectorI7SMSFuncE9push_backERKS0_>
    1746:	0022      	movs	r2, r4
    1748:	4b29      	ldr	r3, [pc, #164]	; (17f0 <_GLOBAL__I_65535_0_GSM.cpp.obj.9388+0x13c>)
    174a:	332c      	adds	r3, #44	; 0x2c
    174c:	cb83      	ldmia	r3!, {r0, r1, r7}
    174e:	c283      	stmia	r2!, {r0, r1, r7}
    1750:	0021      	movs	r1, r4
    1752:	9801      	ldr	r0, [sp, #4]
    1754:	f7ff f848 	bl	7e8 <_ZN6VectorI7SMSFuncE9push_backERKS0_>
    1758:	0022      	movs	r2, r4
    175a:	4b25      	ldr	r3, [pc, #148]	; (17f0 <_GLOBAL__I_65535_0_GSM.cpp.obj.9388+0x13c>)
    175c:	3338      	adds	r3, #56	; 0x38
    175e:	cb83      	ldmia	r3!, {r0, r1, r7}
    1760:	c283      	stmia	r2!, {r0, r1, r7}
    1762:	0021      	movs	r1, r4
    1764:	9801      	ldr	r0, [sp, #4]
    1766:	f7ff f83f 	bl	7e8 <_ZN6VectorI7SMSFuncE9push_backERKS0_>
    176a:	0022      	movs	r2, r4
    176c:	4b20      	ldr	r3, [pc, #128]	; (17f0 <_GLOBAL__I_65535_0_GSM.cpp.obj.9388+0x13c>)
    176e:	3344      	adds	r3, #68	; 0x44
    1770:	cb83      	ldmia	r3!, {r0, r1, r7}
    1772:	c283      	stmia	r2!, {r0, r1, r7}
    1774:	0021      	movs	r1, r4
    1776:	9801      	ldr	r0, [sp, #4]
    1778:	f7ff f836 	bl	7e8 <_ZN6VectorI7SMSFuncE9push_backERKS0_>
    177c:	0022      	movs	r2, r4
    177e:	4b1c      	ldr	r3, [pc, #112]	; (17f0 <_GLOBAL__I_65535_0_GSM.cpp.obj.9388+0x13c>)
    1780:	3350      	adds	r3, #80	; 0x50
    1782:	cb83      	ldmia	r3!, {r0, r1, r7}
    1784:	c283      	stmia	r2!, {r0, r1, r7}
    1786:	0021      	movs	r1, r4
    1788:	9801      	ldr	r0, [sp, #4]
    178a:	f7ff f82d 	bl	7e8 <_ZN6VectorI7SMSFuncE9push_backERKS0_>
    178e:	4c19      	ldr	r4, [pc, #100]	; (17f4 <_GLOBAL__I_65535_0_GSM.cpp.obj.9388+0x140>)
    1790:	4919      	ldr	r1, [pc, #100]	; (17f8 <_GLOBAL__I_65535_0_GSM.cpp.obj.9388+0x144>)
    1792:	0022      	movs	r2, r4
    1794:	4819      	ldr	r0, [pc, #100]	; (17fc <_GLOBAL__I_65535_0_GSM.cpp.obj.9388+0x148>)
    1796:	f000 fcbd 	bl	2114 <__aeabi_atexit>
    179a:	002b      	movs	r3, r5
    179c:	3354      	adds	r3, #84	; 0x54
    179e:	602b      	str	r3, [r5, #0]
    17a0:	230e      	movs	r3, #14
    17a2:	60ab      	str	r3, [r5, #8]
    17a4:	3301      	adds	r3, #1
    17a6:	612b      	str	r3, [r5, #16]
    17a8:	2380      	movs	r3, #128	; 0x80
    17aa:	019b      	lsls	r3, r3, #6
    17ac:	82eb      	strh	r3, [r5, #22]
    17ae:	2305      	movs	r3, #5
    17b0:	0022      	movs	r2, r4
    17b2:	0028      	movs	r0, r5
    17b4:	4912      	ldr	r1, [pc, #72]	; (1800 <_GLOBAL__I_65535_0_GSM.cpp.obj.9388+0x14c>)
    17b6:	606e      	str	r6, [r5, #4]
    17b8:	60ee      	str	r6, [r5, #12]
    17ba:	832e      	strh	r6, [r5, #24]
    17bc:	77ab      	strb	r3, [r5, #30]
    17be:	626b      	str	r3, [r5, #36]	; 0x24
    17c0:	62ae      	str	r6, [r5, #40]	; 0x28
    17c2:	62ee      	str	r6, [r5, #44]	; 0x2c
    17c4:	632e      	str	r6, [r5, #48]	; 0x30
    17c6:	636e      	str	r6, [r5, #52]	; 0x34
    17c8:	f000 fca4 	bl	2114 <__aeabi_atexit>
    17cc:	b007      	add	sp, #28
    17ce:	bdf0      	pop	{r4, r5, r6, r7, pc}
    17d0:	20000164 	.word	0x20000164
    17d4:	00000202 	.word	0x00000202
    17d8:	00000205 	.word	0x00000205
    17dc:	42000800 	.word	0x42000800
    17e0:	20000370 	.word	0x20000370
    17e4:	42000c00 	.word	0x42000c00
    17e8:	20000108 	.word	0x20000108
    17ec:	41004400 	.word	0x41004400
    17f0:	00002f34 	.word	0x00002f34
    17f4:	20000044 	.word	0x20000044
    17f8:	00000681 	.word	0x00000681
    17fc:	20000148 	.word	0x20000148
    1800:	00000645 	.word	0x00000645

00001804 <main>:
    1804:	b5f0      	push	{r4, r5, r6, r7, lr}
    1806:	b0ab      	sub	sp, #172	; 0xac
    1808:	ac1a      	add	r4, sp, #104	; 0x68
    180a:	0022      	movs	r2, r4
    180c:	4bee      	ldr	r3, [pc, #952]	; (1bc8 <main+0x3c4>)
    180e:	4eef      	ldr	r6, [pc, #956]	; (1bcc <main+0x3c8>)
    1810:	335c      	adds	r3, #92	; 0x5c
    1812:	cb23      	ldmia	r3!, {r0, r1, r5}
    1814:	c223      	stmia	r2!, {r0, r1, r5}
    1816:	cb03      	ldmia	r3!, {r0, r1}
    1818:	c203      	stmia	r2!, {r0, r1}
    181a:	2382      	movs	r3, #130	; 0x82
    181c:	009b      	lsls	r3, r3, #2
    181e:	58f3      	ldr	r3, [r6, r3]
    1820:	4aeb      	ldr	r2, [pc, #940]	; (1bd0 <main+0x3cc>)
    1822:	4dec      	ldr	r5, [pc, #944]	; (1bd4 <main+0x3d0>)
    1824:	4293      	cmp	r3, r2
    1826:	d000      	beq.n	182a <main+0x26>
    1828:	e207      	b.n	1c3a <main+0x436>
    182a:	2308      	movs	r3, #8
    182c:	6a2a      	ldr	r2, [r5, #32]
    182e:	4313      	orrs	r3, r2
    1830:	622b      	str	r3, [r5, #32]
    1832:	4be9      	ldr	r3, [pc, #932]	; (1bd8 <main+0x3d4>)
    1834:	4ae9      	ldr	r2, [pc, #932]	; (1bdc <main+0x3d8>)
    1836:	0020      	movs	r0, r4
    1838:	8053      	strh	r3, [r2, #2]
    183a:	7ca1      	ldrb	r1, [r4, #18]
    183c:	1e4b      	subs	r3, r1, #1
    183e:	4199      	sbcs	r1, r3
    1840:	3102      	adds	r1, #2
    1842:	f7fe fe03 	bl	44c <_ZN4gpio6pmuxenERK6gpio_th>
    1846:	7ce1      	ldrb	r1, [r4, #19]
    1848:	a81c      	add	r0, sp, #112	; 0x70
    184a:	1e4b      	subs	r3, r1, #1
    184c:	4199      	sbcs	r1, r3
    184e:	3102      	adds	r1, #2
    1850:	f7fe fdfc 	bl	44c <_ZN4gpio6pmuxenERK6gpio_th>
    1854:	2382      	movs	r3, #130	; 0x82
    1856:	2002      	movs	r0, #2
    1858:	009b      	lsls	r3, r3, #2
    185a:	58f1      	ldr	r1, [r6, r3]
    185c:	680a      	ldr	r2, [r1, #0]
    185e:	4382      	bics	r2, r0
    1860:	600a      	str	r2, [r1, #0]
    1862:	2201      	movs	r2, #1
    1864:	58f1      	ldr	r1, [r6, r3]
    1866:	6808      	ldr	r0, [r1, #0]
    1868:	4302      	orrs	r2, r0
    186a:	600a      	str	r2, [r1, #0]
    186c:	58f2      	ldr	r2, [r6, r3]
    186e:	6813      	ldr	r3, [r2, #0]
    1870:	07db      	lsls	r3, r3, #31
    1872:	d4fc      	bmi.n	186e <main+0x6a>
    1874:	211c      	movs	r1, #28
    1876:	6813      	ldr	r3, [r2, #0]
    1878:	af1a      	add	r7, sp, #104	; 0x68
    187a:	438b      	bics	r3, r1
    187c:	3918      	subs	r1, #24
    187e:	430b      	orrs	r3, r1
    1880:	6013      	str	r3, [r2, #0]
    1882:	2282      	movs	r2, #130	; 0x82
    1884:	2180      	movs	r1, #128	; 0x80
    1886:	4bd1      	ldr	r3, [pc, #836]	; (1bcc <main+0x3c8>)
    1888:	0092      	lsls	r2, r2, #2
    188a:	5898      	ldr	r0, [r3, r2]
    188c:	05c9      	lsls	r1, r1, #23
    188e:	6804      	ldr	r4, [r0, #0]
    1890:	4321      	orrs	r1, r4
    1892:	6001      	str	r1, [r0, #0]
    1894:	2003      	movs	r0, #3
    1896:	589e      	ldr	r6, [r3, r2]
    1898:	7c39      	ldrb	r1, [r7, #16]
    189a:	6834      	ldr	r4, [r6, #0]
    189c:	4001      	ands	r1, r0
    189e:	48d0      	ldr	r0, [pc, #832]	; (1be0 <main+0x3dc>)
    18a0:	0409      	lsls	r1, r1, #16
    18a2:	4004      	ands	r4, r0
    18a4:	430c      	orrs	r4, r1
    18a6:	6034      	str	r4, [r6, #0]
    18a8:	4684      	mov	ip, r0
    18aa:	5898      	ldr	r0, [r3, r2]
    18ac:	7c7e      	ldrb	r6, [r7, #17]
    18ae:	6801      	ldr	r1, [r0, #0]
    18b0:	2003      	movs	r0, #3
    18b2:	4ccc      	ldr	r4, [pc, #816]	; (1be4 <main+0x3e0>)
    18b4:	4030      	ands	r0, r6
    18b6:	0500      	lsls	r0, r0, #20
    18b8:	4021      	ands	r1, r4
    18ba:	4301      	orrs	r1, r0
    18bc:	5898      	ldr	r0, [r3, r2]
    18be:	2604      	movs	r6, #4
    18c0:	6001      	str	r1, [r0, #0]
    18c2:	5898      	ldr	r0, [r3, r2]
    18c4:	49c8      	ldr	r1, [pc, #800]	; (1be8 <main+0x3e4>)
    18c6:	9408      	str	r4, [sp, #32]
    18c8:	8181      	strh	r1, [r0, #12]
    18ca:	20c0      	movs	r0, #192	; 0xc0
    18cc:	5899      	ldr	r1, [r3, r2]
    18ce:	0280      	lsls	r0, r0, #10
    18d0:	6048      	str	r0, [r1, #4]
    18d2:	5899      	ldr	r1, [r3, r2]
    18d4:	7d88      	ldrb	r0, [r1, #22]
    18d6:	4330      	orrs	r0, r6
    18d8:	7588      	strb	r0, [r1, #22]
    18da:	4660      	mov	r0, ip
    18dc:	589a      	ldr	r2, [r3, r2]
    18de:	49c3      	ldr	r1, [pc, #780]	; (1bec <main+0x3e8>)
    18e0:	9007      	str	r0, [sp, #28]
    18e2:	428a      	cmp	r2, r1
    18e4:	d000      	beq.n	18e8 <main+0xe4>
    18e6:	e1ae      	b.n	1c46 <main+0x442>
    18e8:	2080      	movs	r0, #128	; 0x80
    18ea:	49c1      	ldr	r1, [pc, #772]	; (1bf0 <main+0x3ec>)
    18ec:	0080      	lsls	r0, r0, #2
    18ee:	6008      	str	r0, [r1, #0]
    18f0:	2102      	movs	r1, #2
    18f2:	6810      	ldr	r0, [r2, #0]
    18f4:	4301      	orrs	r1, r0
    18f6:	6011      	str	r1, [r2, #0]
    18f8:	2101      	movs	r1, #1
    18fa:	4abe      	ldr	r2, [pc, #760]	; (1bf4 <main+0x3f0>)
    18fc:	5499      	strb	r1, [r3, r2]
    18fe:	a912      	add	r1, sp, #72	; 0x48
    1900:	000a      	movs	r2, r1
    1902:	4bb1      	ldr	r3, [pc, #708]	; (1bc8 <main+0x3c4>)
    1904:	3370      	adds	r3, #112	; 0x70
    1906:	cb51      	ldmia	r3!, {r0, r4, r6}
    1908:	c251      	stmia	r2!, {r0, r4, r6}
    190a:	cb51      	ldmia	r3!, {r0, r4, r6}
    190c:	c251      	stmia	r2!, {r0, r4, r6}
    190e:	cb11      	ldmia	r3!, {r0, r4}
    1910:	c211      	stmia	r2!, {r0, r4}
    1912:	2220      	movs	r2, #32
    1914:	0038      	movs	r0, r7
    1916:	f000 fe15 	bl	2544 <memcpy>
    191a:	4cb7      	ldr	r4, [pc, #732]	; (1bf8 <main+0x3f4>)
    191c:	6d63      	ldr	r3, [r4, #84]	; 0x54
    191e:	001a      	movs	r2, r3
    1920:	4bab      	ldr	r3, [pc, #684]	; (1bd0 <main+0x3cc>)
    1922:	429a      	cmp	r2, r3
    1924:	d000      	beq.n	1928 <main+0x124>
    1926:	e196      	b.n	1c56 <main+0x452>
    1928:	2308      	movs	r3, #8
    192a:	6a2a      	ldr	r2, [r5, #32]
    192c:	4313      	orrs	r3, r2
    192e:	622b      	str	r3, [r5, #32]
    1930:	4aaa      	ldr	r2, [pc, #680]	; (1bdc <main+0x3d8>)
    1932:	4ba9      	ldr	r3, [pc, #676]	; (1bd8 <main+0x3d4>)
    1934:	8053      	strh	r3, [r2, #2]
    1936:	4ba9      	ldr	r3, [pc, #676]	; (1bdc <main+0x3d8>)
    1938:	785b      	ldrb	r3, [r3, #1]
    193a:	09db      	lsrs	r3, r3, #7
    193c:	d1fb      	bne.n	1936 <main+0x132>
    193e:	7e39      	ldrb	r1, [r7, #24]
    1940:	0038      	movs	r0, r7
    1942:	1e4b      	subs	r3, r1, #1
    1944:	4199      	sbcs	r1, r3
    1946:	3102      	adds	r1, #2
    1948:	f7fe fd80 	bl	44c <_ZN4gpio6pmuxenERK6gpio_th>
    194c:	7e79      	ldrb	r1, [r7, #25]
    194e:	a81c      	add	r0, sp, #112	; 0x70
    1950:	1e4b      	subs	r3, r1, #1
    1952:	4199      	sbcs	r1, r3
    1954:	3102      	adds	r1, #2
    1956:	f7fe fd79 	bl	44c <_ZN4gpio6pmuxenERK6gpio_th>
    195a:	7eb9      	ldrb	r1, [r7, #26]
    195c:	a81e      	add	r0, sp, #120	; 0x78
    195e:	1e4b      	subs	r3, r1, #1
    1960:	4199      	sbcs	r1, r3
    1962:	3102      	adds	r1, #2
    1964:	f7fe fd72 	bl	44c <_ZN4gpio6pmuxenERK6gpio_th>
    1968:	2102      	movs	r1, #2
    196a:	6d62      	ldr	r2, [r4, #84]	; 0x54
    196c:	6813      	ldr	r3, [r2, #0]
    196e:	438b      	bics	r3, r1
    1970:	6013      	str	r3, [r2, #0]
    1972:	2301      	movs	r3, #1
    1974:	6d62      	ldr	r2, [r4, #84]	; 0x54
    1976:	6811      	ldr	r1, [r2, #0]
    1978:	430b      	orrs	r3, r1
    197a:	6013      	str	r3, [r2, #0]
    197c:	6d63      	ldr	r3, [r4, #84]	; 0x54
    197e:	681a      	ldr	r2, [r3, #0]
    1980:	07d2      	lsls	r2, r2, #31
    1982:	d4fc      	bmi.n	197e <main+0x17a>
    1984:	211c      	movs	r1, #28
    1986:	681a      	ldr	r2, [r3, #0]
    1988:	2003      	movs	r0, #3
    198a:	438a      	bics	r2, r1
    198c:	0011      	movs	r1, r2
    198e:	220c      	movs	r2, #12
    1990:	430a      	orrs	r2, r1
    1992:	601a      	str	r2, [r3, #0]
    1994:	6d62      	ldr	r2, [r4, #84]	; 0x54
    1996:	7f39      	ldrb	r1, [r7, #28]
    1998:	6813      	ldr	r3, [r2, #0]
    199a:	9e07      	ldr	r6, [sp, #28]
    199c:	4001      	ands	r1, r0
    199e:	0409      	lsls	r1, r1, #16
    19a0:	401e      	ands	r6, r3
    19a2:	430e      	orrs	r6, r1
    19a4:	6016      	str	r6, [r2, #0]
    19a6:	6d61      	ldr	r1, [r4, #84]	; 0x54
    19a8:	7efa      	ldrb	r2, [r7, #27]
    19aa:	680b      	ldr	r3, [r1, #0]
    19ac:	4002      	ands	r2, r0
    19ae:	9808      	ldr	r0, [sp, #32]
    19b0:	0512      	lsls	r2, r2, #20
    19b2:	4003      	ands	r3, r0
    19b4:	4313      	orrs	r3, r2
    19b6:	600b      	str	r3, [r1, #0]
    19b8:	6d63      	ldr	r3, [r4, #84]	; 0x54
    19ba:	69da      	ldr	r2, [r3, #28]
    19bc:	0752      	lsls	r2, r2, #29
    19be:	d4fc      	bmi.n	19ba <main+0x1b6>
    19c0:	2280      	movs	r2, #128	; 0x80
    19c2:	6859      	ldr	r1, [r3, #4]
    19c4:	0292      	lsls	r2, r2, #10
    19c6:	430a      	orrs	r2, r1
    19c8:	605a      	str	r2, [r3, #4]
    19ca:	69da      	ldr	r2, [r3, #28]
    19cc:	0752      	lsls	r2, r2, #29
    19ce:	d4fc      	bmi.n	19ca <main+0x1c6>
    19d0:	2214      	movs	r2, #20
    19d2:	731a      	strb	r2, [r3, #12]
    19d4:	6819      	ldr	r1, [r3, #0]
    19d6:	3a12      	subs	r2, #18
    19d8:	430a      	orrs	r2, r1
    19da:	601a      	str	r2, [r3, #0]
    19dc:	6d62      	ldr	r2, [r4, #84]	; 0x54
    19de:	69d3      	ldr	r3, [r2, #28]
    19e0:	079b      	lsls	r3, r3, #30
    19e2:	d4fc      	bmi.n	19de <main+0x1da>
    19e4:	2110      	movs	r1, #16
    19e6:	2502      	movs	r5, #2
    19e8:	4b84      	ldr	r3, [pc, #528]	; (1bfc <main+0x3f8>)
    19ea:	4885      	ldr	r0, [pc, #532]	; (1c00 <main+0x3fc>)
    19ec:	6099      	str	r1, [r3, #8]
    19ee:	7802      	ldrb	r2, [r0, #0]
    19f0:	43aa      	bics	r2, r5
    19f2:	7002      	strb	r2, [r0, #0]
    19f4:	6159      	str	r1, [r3, #20]
    19f6:	68e5      	ldr	r5, [r4, #12]
    19f8:	6862      	ldr	r2, [r4, #4]
    19fa:	6920      	ldr	r0, [r4, #16]
    19fc:	930c      	str	r3, [sp, #48]	; 0x30
    19fe:	42aa      	cmp	r2, r5
    1a00:	d102      	bne.n	1a08 <main+0x204>
    1a02:	68a3      	ldr	r3, [r4, #8]
    1a04:	4283      	cmp	r3, r0
    1a06:	d010      	beq.n	1a2a <main+0x226>
    1a08:	2101      	movs	r1, #1
    1a0a:	68a6      	ldr	r6, [r4, #8]
    1a0c:	01d3      	lsls	r3, r2, #7
    1a0e:	40b1      	lsls	r1, r6
    1a10:	468c      	mov	ip, r1
    1a12:	497a      	ldr	r1, [pc, #488]	; (1bfc <main+0x3f8>)
    1a14:	185b      	adds	r3, r3, r1
    1a16:	4661      	mov	r1, ip
    1a18:	6099      	str	r1, [r3, #8]
    1a1a:	199b      	adds	r3, r3, r6
    1a1c:	2602      	movs	r6, #2
    1a1e:	3340      	adds	r3, #64	; 0x40
    1a20:	7819      	ldrb	r1, [r3, #0]
    1a22:	43b1      	bics	r1, r6
    1a24:	7019      	strb	r1, [r3, #0]
    1a26:	42aa      	cmp	r2, r5
    1a28:	d102      	bne.n	1a30 <main+0x22c>
    1a2a:	68a3      	ldr	r3, [r4, #8]
    1a2c:	4283      	cmp	r3, r0
    1a2e:	d00d      	beq.n	1a4c <main+0x248>
    1a30:	2201      	movs	r2, #1
    1a32:	6921      	ldr	r1, [r4, #16]
    1a34:	68e3      	ldr	r3, [r4, #12]
    1a36:	408a      	lsls	r2, r1
    1a38:	4870      	ldr	r0, [pc, #448]	; (1bfc <main+0x3f8>)
    1a3a:	01db      	lsls	r3, r3, #7
    1a3c:	181b      	adds	r3, r3, r0
    1a3e:	609a      	str	r2, [r3, #8]
    1a40:	185b      	adds	r3, r3, r1
    1a42:	2102      	movs	r1, #2
    1a44:	3340      	adds	r3, #64	; 0x40
    1a46:	781a      	ldrb	r2, [r3, #0]
    1a48:	438a      	bics	r2, r1
    1a4a:	701a      	strb	r2, [r3, #0]
    1a4c:	2501      	movs	r5, #1
    1a4e:	2000      	movs	r0, #0
    1a50:	f7fe fafa 	bl	48 <_ZN4RF242ceEb.constprop.0>
    1a54:	002a      	movs	r2, r5
    1a56:	6923      	ldr	r3, [r4, #16]
    1a58:	4968      	ldr	r1, [pc, #416]	; (1bfc <main+0x3f8>)
    1a5a:	409a      	lsls	r2, r3
    1a5c:	68e3      	ldr	r3, [r4, #12]
    1a5e:	01db      	lsls	r3, r3, #7
    1a60:	185b      	adds	r3, r3, r1
    1a62:	619a      	str	r2, [r3, #24]
    1a64:	f001 fde4 	bl	3630 <__delay_usec.constprop.0_veneer>
    1a68:	f001 fde2 	bl	3630 <__delay_usec.constprop.0_veneer>
    1a6c:	210c      	movs	r1, #12
    1a6e:	2000      	movs	r0, #0
    1a70:	f7fe fbf2 	bl	258 <_ZN4RF2414write_registerEhh.constprop.0>
    1a74:	215f      	movs	r1, #95	; 0x5f
    1a76:	2004      	movs	r0, #4
    1a78:	f7fe fbee 	bl	258 <_ZN4RF2414write_registerEhh.constprop.0>
    1a7c:	2002      	movs	r0, #2
    1a7e:	f7fe fc13 	bl	2a8 <_ZN4RF2411setDataRateE15rf24_datarate_e.constprop.0>
    1a82:	2800      	cmp	r0, #0
    1a84:	d000      	beq.n	1a88 <main+0x284>
    1a86:	75a5      	strb	r5, [r4, #22]
    1a88:	2006      	movs	r0, #6
    1a8a:	f7fe fbb3 	bl	1f4 <_ZN4RF2413read_registerEh.constprop.0>
    1a8e:	2600      	movs	r6, #0
    1a90:	0005      	movs	r5, r0
    1a92:	2000      	movs	r0, #0
    1a94:	f7fe fc08 	bl	2a8 <_ZN4RF2411setDataRateE15rf24_datarate_e.constprop.0>
    1a98:	f7fe faf0 	bl	7c <_ZN4RF2416beginTransactionEv.constprop.0>
    1a9c:	2150      	movs	r1, #80	; 0x50
    1a9e:	6820      	ldr	r0, [r4, #0]
    1aa0:	f7fe fb98 	bl	1d4 <_ZN5spi_t8TransferEh>
    1aa4:	2173      	movs	r1, #115	; 0x73
    1aa6:	6820      	ldr	r0, [r4, #0]
    1aa8:	f7fe fb94 	bl	1d4 <_ZN5spi_t8TransferEh>
    1aac:	f7fe faf8 	bl	a0 <_ZN4RF2414endTransactionEv.constprop.0>
    1ab0:	2100      	movs	r1, #0
    1ab2:	201d      	movs	r0, #29
    1ab4:	f7fe fbd0 	bl	258 <_ZN4RF2414write_registerEhh.constprop.0>
    1ab8:	2100      	movs	r1, #0
    1aba:	201c      	movs	r0, #28
    1abc:	f7fe fbcc 	bl	258 <_ZN4RF2414write_registerEhh.constprop.0>
    1ac0:	2170      	movs	r1, #112	; 0x70
    1ac2:	2007      	movs	r0, #7
    1ac4:	7626      	strb	r6, [r4, #24]
    1ac6:	f7fe fbc7 	bl	258 <_ZN4RF2414write_registerEhh.constprop.0>
    1aca:	214c      	movs	r1, #76	; 0x4c
    1acc:	2005      	movs	r0, #5
    1ace:	f7fe fbc3 	bl	258 <_ZN4RF2414write_registerEhh.constprop.0>
    1ad2:	20e2      	movs	r0, #226	; 0xe2
    1ad4:	f7fe fc06 	bl	2e4 <_ZN4RF248spiTransEh.constprop.0>
    1ad8:	f7fe fc14 	bl	304 <_ZN4RF248flush_txEv.constprop.0>
    1adc:	f7fe fbd4 	bl	288 <_ZN4RF247powerUpEv.constprop.0>
    1ae0:	0030      	movs	r0, r6
    1ae2:	f7fe fb87 	bl	1f4 <_ZN4RF2413read_registerEh.constprop.0>
    1ae6:	2301      	movs	r3, #1
    1ae8:	4398      	bics	r0, r3
    1aea:	b2c1      	uxtb	r1, r0
    1aec:	3d01      	subs	r5, #1
    1aee:	0030      	movs	r0, r6
    1af0:	f7fe fbb2 	bl	258 <_ZN4RF2414write_registerEhh.constprop.0>
    1af4:	b2e8      	uxtb	r0, r5
    1af6:	2510      	movs	r5, #16
    1af8:	28fd      	cmp	r0, #253	; 0xfd
    1afa:	d900      	bls.n	1afe <main+0x2fa>
    1afc:	e0b7      	b.n	1c6e <main+0x46a>
    1afe:	2178      	movs	r1, #120	; 0x78
    1b00:	2005      	movs	r0, #5
    1b02:	f7fe fba9 	bl	258 <_ZN4RF2414write_registerEhh.constprop.0>
    1b06:	213f      	movs	r1, #63	; 0x3f
    1b08:	2001      	movs	r0, #1
    1b0a:	f7fe fba5 	bl	258 <_ZN4RF2414write_registerEhh.constprop.0>
    1b0e:	215f      	movs	r1, #95	; 0x5f
    1b10:	2004      	movs	r0, #4
    1b12:	f7fe fba1 	bl	258 <_ZN4RF2414write_registerEhh.constprop.0>
    1b16:	2320      	movs	r3, #32
    1b18:	2006      	movs	r0, #6
    1b1a:	75e3      	strb	r3, [r4, #23]
    1b1c:	f7fe fb6a 	bl	1f4 <_ZN4RF2413read_registerEh.constprop.0>
    1b20:	2307      	movs	r3, #7
    1b22:	4398      	bics	r0, r3
    1b24:	b2c1      	uxtb	r1, r0
    1b26:	4319      	orrs	r1, r3
    1b28:	2006      	movs	r0, #6
    1b2a:	f7fe fb95 	bl	258 <_ZN4RF2414write_registerEhh.constprop.0>
    1b2e:	0030      	movs	r0, r6
    1b30:	f7fe fbba 	bl	2a8 <_ZN4RF2411setDataRateE15rf24_datarate_e.constprop.0>
    1b34:	2300      	movs	r3, #0
    1b36:	4a33      	ldr	r2, [pc, #204]	; (1c04 <main+0x400>)
    1b38:	a90e      	add	r1, sp, #56	; 0x38
    1b3a:	920e      	str	r2, [sp, #56]	; 0x38
    1b3c:	930f      	str	r3, [sp, #60]	; 0x3c
    1b3e:	200b      	movs	r0, #11
    1b40:	7fa2      	ldrb	r2, [r4, #30]
    1b42:	f7fe fb6b 	bl	21c <_ZN4RF2414write_registerEhPKhh.constprop.0>
    1b46:	7de1      	ldrb	r1, [r4, #23]
    1b48:	2012      	movs	r0, #18
    1b4a:	f7fe fb85 	bl	258 <_ZN4RF2414write_registerEhh.constprop.0>
    1b4e:	2002      	movs	r0, #2
    1b50:	f7fe fb50 	bl	1f4 <_ZN4RF2413read_registerEh.constprop.0>
    1b54:	0001      	movs	r1, r0
    1b56:	2002      	movs	r0, #2
    1b58:	4301      	orrs	r1, r0
    1b5a:	b2c9      	uxtb	r1, r1
    1b5c:	f7fe fb7c 	bl	258 <_ZN4RF2414write_registerEhh.constprop.0>
    1b60:	f7fe fbf6 	bl	350 <_ZN4RF2414startListeningEv.constprop.0>
    1b64:	210d      	movs	r1, #13
    1b66:	6ca0      	ldr	r0, [r4, #72]	; 0x48
    1b68:	f7fe fad0 	bl	10c <_ZN6uart_t5writeEc>
    1b6c:	0020      	movs	r0, r4
    1b6e:	23fa      	movs	r3, #250	; 0xfa
    1b70:	4d25      	ldr	r5, [pc, #148]	; (1c08 <main+0x404>)
    1b72:	4e26      	ldr	r6, [pc, #152]	; (1c0c <main+0x408>)
    1b74:	002a      	movs	r2, r5
    1b76:	0031      	movs	r1, r6
    1b78:	3040      	adds	r0, #64	; 0x40
    1b7a:	005b      	lsls	r3, r3, #1
    1b7c:	f7fe fcb0 	bl	4e0 <_ZN3GSM7CommandEPKcS1_j>
    1b80:	2800      	cmp	r0, #0
    1b82:	d179      	bne.n	1c78 <main+0x474>
    1b84:	2303      	movs	r3, #3
    1b86:	9307      	str	r3, [sp, #28]
    1b88:	3b02      	subs	r3, #2
    1b8a:	9308      	str	r3, [sp, #32]
    1b8c:	6c63      	ldr	r3, [r4, #68]	; 0x44
    1b8e:	9a08      	ldr	r2, [sp, #32]
    1b90:	491f      	ldr	r1, [pc, #124]	; (1c10 <main+0x40c>)
    1b92:	409a      	lsls	r2, r3
    1b94:	6c23      	ldr	r3, [r4, #64]	; 0x40
    1b96:	01db      	lsls	r3, r3, #7
    1b98:	185b      	adds	r3, r3, r1
    1b9a:	601a      	str	r2, [r3, #0]
    1b9c:	f001 fd48 	bl	3630 <__delay_usec.constprop.0_veneer>
    1ba0:	6c63      	ldr	r3, [r4, #68]	; 0x44
    1ba2:	9a08      	ldr	r2, [sp, #32]
    1ba4:	491b      	ldr	r1, [pc, #108]	; (1c14 <main+0x410>)
    1ba6:	409a      	lsls	r2, r3
    1ba8:	6c23      	ldr	r3, [r4, #64]	; 0x40
    1baa:	01db      	lsls	r3, r3, #7
    1bac:	185b      	adds	r3, r3, r1
    1bae:	601a      	str	r2, [r3, #0]
    1bb0:	f001 fd3e 	bl	3630 <__delay_usec.constprop.0_veneer>
    1bb4:	23fa      	movs	r3, #250	; 0xfa
    1bb6:	0020      	movs	r0, r4
    1bb8:	005b      	lsls	r3, r3, #1
    1bba:	9300      	str	r3, [sp, #0]
    1bbc:	3bef      	subs	r3, #239	; 0xef
    1bbe:	002a      	movs	r2, r5
    1bc0:	0031      	movs	r1, r6
    1bc2:	3040      	adds	r0, #64	; 0x40
    1bc4:	3bff      	subs	r3, #255	; 0xff
    1bc6:	e027      	b.n	1c18 <main+0x414>
    1bc8:	00002f34 	.word	0x00002f34
    1bcc:	20000370 	.word	0x20000370
    1bd0:	42000c00 	.word	0x42000c00
    1bd4:	40000400 	.word	0x40000400
    1bd8:	0000400f 	.word	0x0000400f
    1bdc:	40000c00 	.word	0x40000c00
    1be0:	fffcffff 	.word	0xfffcffff
    1be4:	ffcfffff 	.word	0xffcfffff
    1be8:	fffff62b 	.word	0xfffff62b
    1bec:	42000800 	.word	0x42000800
    1bf0:	e000e100 	.word	0xe000e100
    1bf4:	00000205 	.word	0x00000205
    1bf8:	20000108 	.word	0x20000108
    1bfc:	41004400 	.word	0x41004400
    1c00:	41004444 	.word	0x41004444
    1c04:	000004ff 	.word	0x000004ff
    1c08:	000033e9 	.word	0x000033e9
    1c0c:	0000333f 	.word	0x0000333f
    1c10:	41004414 	.word	0x41004414
    1c14:	41004418 	.word	0x41004418
    1c18:	f7fe fcd2 	bl	5c0 <_ZN3GSM13RepeatCommandEPKcS1_ii>
    1c1c:	2800      	cmp	r0, #0
    1c1e:	d12b      	bne.n	1c78 <main+0x474>
    1c20:	9b07      	ldr	r3, [sp, #28]
    1c22:	3b01      	subs	r3, #1
    1c24:	9307      	str	r3, [sp, #28]
    1c26:	2b00      	cmp	r3, #0
    1c28:	d1b0      	bne.n	1b8c <main+0x388>
    1c2a:	2410      	movs	r4, #16
    1c2c:	f7fe fdf8 	bl	820 <_ZN9Sensornet4PollEv.constprop.0>
    1c30:	9b0c      	ldr	r3, [sp, #48]	; 0x30
    1c32:	61dc      	str	r4, [r3, #28]
    1c34:	f001 fcfc 	bl	3630 <__delay_usec.constprop.0_veneer>
    1c38:	e7f8      	b.n	1c2c <main+0x428>
    1c3a:	2304      	movs	r3, #4
    1c3c:	6a2a      	ldr	r2, [r5, #32]
    1c3e:	4313      	orrs	r3, r2
    1c40:	622b      	str	r3, [r5, #32]
    1c42:	4bd1      	ldr	r3, [pc, #836]	; (1f88 <main+0x784>)
    1c44:	e5f6      	b.n	1834 <main+0x30>
    1c46:	49d1      	ldr	r1, [pc, #836]	; (1f8c <main+0x788>)
    1c48:	428a      	cmp	r2, r1
    1c4a:	d000      	beq.n	1c4e <main+0x44a>
    1c4c:	e650      	b.n	18f0 <main+0xec>
    1c4e:	2080      	movs	r0, #128	; 0x80
    1c50:	49cf      	ldr	r1, [pc, #828]	; (1f90 <main+0x78c>)
    1c52:	00c0      	lsls	r0, r0, #3
    1c54:	e64b      	b.n	18ee <main+0xea>
    1c56:	2304      	movs	r3, #4
    1c58:	6a2a      	ldr	r2, [r5, #32]
    1c5a:	4313      	orrs	r3, r2
    1c5c:	622b      	str	r3, [r5, #32]
    1c5e:	4acd      	ldr	r2, [pc, #820]	; (1f94 <main+0x790>)
    1c60:	4bc9      	ldr	r3, [pc, #804]	; (1f88 <main+0x784>)
    1c62:	8053      	strh	r3, [r2, #2]
    1c64:	4bcb      	ldr	r3, [pc, #812]	; (1f94 <main+0x790>)
    1c66:	785b      	ldrb	r3, [r3, #1]
    1c68:	09db      	lsrs	r3, r3, #7
    1c6a:	d1fb      	bne.n	1c64 <main+0x460>
    1c6c:	e667      	b.n	193e <main+0x13a>
    1c6e:	9b0c      	ldr	r3, [sp, #48]	; 0x30
    1c70:	61dd      	str	r5, [r3, #28]
    1c72:	f001 fcdd 	bl	3630 <__delay_usec.constprop.0_veneer>
    1c76:	e7fa      	b.n	1c6e <main+0x46a>
    1c78:	0025      	movs	r5, r4
    1c7a:	4ec7      	ldr	r6, [pc, #796]	; (1f98 <main+0x794>)
    1c7c:	3540      	adds	r5, #64	; 0x40
    1c7e:	0033      	movs	r3, r6
    1c80:	2200      	movs	r2, #0
    1c82:	49c6      	ldr	r1, [pc, #792]	; (1f9c <main+0x798>)
    1c84:	0028      	movs	r0, r5
    1c86:	f7fe fc2b 	bl	4e0 <_ZN3GSM7CommandEPKcS1_j>
    1c8a:	2319      	movs	r3, #25
    1c8c:	0028      	movs	r0, r5
    1c8e:	4ac4      	ldr	r2, [pc, #784]	; (1fa0 <main+0x79c>)
    1c90:	49c4      	ldr	r1, [pc, #784]	; (1fa4 <main+0x7a0>)
    1c92:	9600      	str	r6, [sp, #0]
    1c94:	f7fe fc94 	bl	5c0 <_ZN3GSM13RepeatCommandEPKcS1_ii>
    1c98:	2800      	cmp	r0, #0
    1c9a:	d0c6      	beq.n	1c2a <main+0x426>
    1c9c:	0033      	movs	r3, r6
    1c9e:	2200      	movs	r2, #0
    1ca0:	49c1      	ldr	r1, [pc, #772]	; (1fa8 <main+0x7a4>)
    1ca2:	0028      	movs	r0, r5
    1ca4:	f7fe fc1c 	bl	4e0 <_ZN3GSM7CommandEPKcS1_j>
    1ca8:	0033      	movs	r3, r6
    1caa:	2200      	movs	r2, #0
    1cac:	49bf      	ldr	r1, [pc, #764]	; (1fac <main+0x7a8>)
    1cae:	0028      	movs	r0, r5
    1cb0:	f7fe fc16 	bl	4e0 <_ZN3GSM7CommandEPKcS1_j>
    1cb4:	2180      	movs	r1, #128	; 0x80
    1cb6:	2300      	movs	r3, #0
    1cb8:	6ca2      	ldr	r2, [r4, #72]	; 0x48
    1cba:	0089      	lsls	r1, r1, #2
    1cbc:	5253      	strh	r3, [r2, r1]
    1cbe:	49bc      	ldr	r1, [pc, #752]	; (1fb0 <main+0x7ac>)
    1cc0:	5253      	strh	r3, [r2, r1]
    1cc2:	3102      	adds	r1, #2
    1cc4:	5453      	strb	r3, [r2, r1]
    1cc6:	4abb      	ldr	r2, [pc, #748]	; (1fb4 <main+0x7b0>)
    1cc8:	7812      	ldrb	r2, [r2, #0]
    1cca:	0652      	lsls	r2, r2, #25
    1ccc:	d51e      	bpl.n	1d0c <main+0x508>
    1cce:	0028      	movs	r0, r5
    1cd0:	0039      	movs	r1, r7
    1cd2:	931a      	str	r3, [sp, #104]	; 0x68
    1cd4:	607b      	str	r3, [r7, #4]
    1cd6:	f7ff fb2f 	bl	1338 <_ZN3GSM9GetAllNumEP6VectorIPcE>
    1cda:	9b1a      	ldr	r3, [sp, #104]	; 0x68
    1cdc:	9d1b      	ldr	r5, [sp, #108]	; 0x6c
    1cde:	009e      	lsls	r6, r3, #2
    1ce0:	9b1b      	ldr	r3, [sp, #108]	; 0x6c
    1ce2:	199b      	adds	r3, r3, r6
    1ce4:	9307      	str	r3, [sp, #28]
    1ce6:	9b07      	ldr	r3, [sp, #28]
    1ce8:	429d      	cmp	r5, r3
    1cea:	d00a      	beq.n	1d02 <main+0x4fe>
    1cec:	0020      	movs	r0, r4
    1cee:	cd40      	ldmia	r5!, {r6}
    1cf0:	4ab1      	ldr	r2, [pc, #708]	; (1fb8 <main+0x7b4>)
    1cf2:	0031      	movs	r1, r6
    1cf4:	3040      	adds	r0, #64	; 0x40
    1cf6:	f7fe ff39 	bl	b6c <_ZN3GSM7SendSMSEPKcS1_>
    1cfa:	0030      	movs	r0, r6
    1cfc:	f000 fb42 	bl	2384 <free>
    1d00:	e7f1      	b.n	1ce6 <main+0x4e2>
    1d02:	6878      	ldr	r0, [r7, #4]
    1d04:	2800      	cmp	r0, #0
    1d06:	d001      	beq.n	1d0c <main+0x508>
    1d08:	f000 fb3c 	bl	2384 <free>
    1d0c:	003a      	movs	r2, r7
    1d0e:	4bab      	ldr	r3, [pc, #684]	; (1fbc <main+0x7b8>)
    1d10:	344c      	adds	r4, #76	; 0x4c
    1d12:	3310      	adds	r3, #16
    1d14:	cb23      	ldmia	r3!, {r0, r1, r5}
    1d16:	c223      	stmia	r2!, {r0, r1, r5}
    1d18:	2561      	movs	r5, #97	; 0x61
    1d1a:	0039      	movs	r1, r7
    1d1c:	0020      	movs	r0, r4
    1d1e:	f7fe fd63 	bl	7e8 <_ZN6VectorI7SMSFuncE9push_backERKS0_>
    1d22:	4ba7      	ldr	r3, [pc, #668]	; (1fc0 <main+0x7bc>)
    1d24:	0039      	movs	r1, r7
    1d26:	931a      	str	r3, [sp, #104]	; 0x68
    1d28:	4ba6      	ldr	r3, [pc, #664]	; (1fc4 <main+0x7c0>)
    1d2a:	0020      	movs	r0, r4
    1d2c:	607b      	str	r3, [r7, #4]
    1d2e:	723d      	strb	r5, [r7, #8]
    1d30:	f7fe fd5a 	bl	7e8 <_ZN6VectorI7SMSFuncE9push_backERKS0_>
    1d34:	4ba4      	ldr	r3, [pc, #656]	; (1fc8 <main+0x7c4>)
    1d36:	0039      	movs	r1, r7
    1d38:	931a      	str	r3, [sp, #104]	; 0x68
    1d3a:	4ba4      	ldr	r3, [pc, #656]	; (1fcc <main+0x7c8>)
    1d3c:	0020      	movs	r0, r4
    1d3e:	607b      	str	r3, [r7, #4]
    1d40:	723d      	strb	r5, [r7, #8]
    1d42:	f7fe fd51 	bl	7e8 <_ZN6VectorI7SMSFuncE9push_backERKS0_>
    1d46:	4ba2      	ldr	r3, [pc, #648]	; (1fd0 <main+0x7cc>)
    1d48:	4a92      	ldr	r2, [pc, #584]	; (1f94 <main+0x790>)
    1d4a:	6093      	str	r3, [r2, #8]
    1d4c:	4ba1      	ldr	r3, [pc, #644]	; (1fd4 <main+0x7d0>)
    1d4e:	6053      	str	r3, [r2, #4]
    1d50:	4b90      	ldr	r3, [pc, #576]	; (1f94 <main+0x790>)
    1d52:	785b      	ldrb	r3, [r3, #1]
    1d54:	09db      	lsrs	r3, r3, #7
    1d56:	d1fb      	bne.n	1d50 <main+0x54c>
    1d58:	4b9f      	ldr	r3, [pc, #636]	; (1fd8 <main+0x7d4>)
    1d5a:	4a8e      	ldr	r2, [pc, #568]	; (1f94 <main+0x790>)
    1d5c:	8053      	strh	r3, [r2, #2]
    1d5e:	4b8d      	ldr	r3, [pc, #564]	; (1f94 <main+0x790>)
    1d60:	785b      	ldrb	r3, [r3, #1]
    1d62:	09db      	lsrs	r3, r3, #7
    1d64:	d1fb      	bne.n	1d5e <main+0x55a>
    1d66:	4c9d      	ldr	r4, [pc, #628]	; (1fdc <main+0x7d8>)
    1d68:	4a9d      	ldr	r2, [pc, #628]	; (1fe0 <main+0x7dc>)
    1d6a:	8022      	strh	r2, [r4, #0]
    1d6c:	4a9d      	ldr	r2, [pc, #628]	; (1fe4 <main+0x7e0>)
    1d6e:	6013      	str	r3, [r2, #0]
    1d70:	3301      	adds	r3, #1
    1d72:	7113      	strb	r3, [r2, #4]
    1d74:	79e2      	ldrb	r2, [r4, #7]
    1d76:	4313      	orrs	r3, r2
    1d78:	2208      	movs	r2, #8
    1d7a:	71e3      	strb	r3, [r4, #7]
    1d7c:	4b84      	ldr	r3, [pc, #528]	; (1f90 <main+0x78c>)
    1d7e:	601a      	str	r2, [r3, #0]
    1d80:	2302      	movs	r3, #2
    1d82:	8822      	ldrh	r2, [r4, #0]
    1d84:	4313      	orrs	r3, r2
    1d86:	8023      	strh	r3, [r4, #0]
    1d88:	f7fe fe4a 	bl	a20 <_Z9UpdateRTCv>
    1d8c:	9408      	str	r4, [sp, #32]
    1d8e:	4c96      	ldr	r4, [pc, #600]	; (1fe8 <main+0x7e4>)
    1d90:	6ca0      	ldr	r0, [r4, #72]	; 0x48
    1d92:	f7fe fb8f 	bl	4b4 <_ZN6uart_t9availableEv>
    1d96:	2800      	cmp	r0, #0
    1d98:	d016      	beq.n	1dc8 <main+0x5c4>
    1d9a:	f001 fc49 	bl	3630 <__delay_usec.constprop.0_veneer>
    1d9e:	6ca0      	ldr	r0, [r4, #72]	; 0x48
    1da0:	f7fe fcba 	bl	718 <_ZN6uart_t4readEv>
    1da4:	9009      	str	r0, [sp, #36]	; 0x24
    1da6:	2800      	cmp	r0, #0
    1da8:	d00e      	beq.n	1dc8 <main+0x5c4>
    1daa:	4990      	ldr	r1, [pc, #576]	; (1fec <main+0x7e8>)
    1dac:	f000 fc86 	bl	26bc <strstr>
    1db0:	2800      	cmp	r0, #0
    1db2:	d06a      	beq.n	1e8a <main+0x686>
    1db4:	0020      	movs	r0, r4
    1db6:	2200      	movs	r2, #0
    1db8:	4b77      	ldr	r3, [pc, #476]	; (1f98 <main+0x794>)
    1dba:	498d      	ldr	r1, [pc, #564]	; (1ff0 <main+0x7ec>)
    1dbc:	3040      	adds	r0, #64	; 0x40
    1dbe:	f7fe fb8f 	bl	4e0 <_ZN3GSM7CommandEPKcS1_j>
    1dc2:	9809      	ldr	r0, [sp, #36]	; 0x24
    1dc4:	f000 fade 	bl	2384 <free>
    1dc8:	f7fe fd2a 	bl	820 <_ZN9Sensornet4PollEv.constprop.0>
    1dcc:	2210      	movs	r2, #16
    1dce:	9b0c      	ldr	r3, [sp, #48]	; 0x30
    1dd0:	61da      	str	r2, [r3, #28]
    1dd2:	4b88      	ldr	r3, [pc, #544]	; (1ff4 <main+0x7f0>)
    1dd4:	6b5a      	ldr	r2, [r3, #52]	; 0x34
    1dd6:	2a09      	cmp	r2, #9
    1dd8:	ddd9      	ble.n	1d8e <main+0x58a>
    1dda:	2500      	movs	r5, #0
    1ddc:	635d      	str	r5, [r3, #52]	; 0x34
    1dde:	f7fe fe1f 	bl	a20 <_Z9UpdateRTCv>
    1de2:	6b23      	ldr	r3, [r4, #48]	; 0x30
    1de4:	42ab      	cmp	r3, r5
    1de6:	d0d2      	beq.n	1d8e <main+0x58a>
    1de8:	2724      	movs	r7, #36	; 0x24
    1dea:	435f      	muls	r7, r3
    1dec:	4a82      	ldr	r2, [pc, #520]	; (1ff8 <main+0x7f4>)
    1dee:	6b64      	ldr	r4, [r4, #52]	; 0x34
    1df0:	9210      	str	r2, [sp, #64]	; 0x40
    1df2:	9511      	str	r5, [sp, #68]	; 0x44
    1df4:	19e7      	adds	r7, r4, r7
    1df6:	42a7      	cmp	r7, r4
    1df8:	d100      	bne.n	1dfc <main+0x5f8>
    1dfa:	e116      	b.n	202a <main+0x826>
    1dfc:	7a66      	ldrb	r6, [r4, #9]
    1dfe:	9b08      	ldr	r3, [sp, #32]
    1e00:	9908      	ldr	r1, [sp, #32]
    1e02:	9808      	ldr	r0, [sp, #32]
    1e04:	9d08      	ldr	r5, [sp, #32]
    1e06:	691a      	ldr	r2, [r3, #16]
    1e08:	691b      	ldr	r3, [r3, #16]
    1e0a:	6909      	ldr	r1, [r1, #16]
    1e0c:	6900      	ldr	r0, [r0, #16]
    1e0e:	692d      	ldr	r5, [r5, #16]
    1e10:	9605      	str	r6, [sp, #20]
    1e12:	1c66      	adds	r6, r4, #1
    1e14:	9604      	str	r6, [sp, #16]
    1e16:	2600      	movs	r6, #0
    1e18:	0289      	lsls	r1, r1, #10
    1e1a:	57a6      	ldrsb	r6, [r4, r6]
    1e1c:	03c0      	lsls	r0, r0, #15
    1e1e:	052d      	lsls	r5, r5, #20
    1e20:	0ec9      	lsrs	r1, r1, #27
    1e22:	0ec0      	lsrs	r0, r0, #27
    1e24:	019b      	lsls	r3, r3, #6
    1e26:	0ead      	lsrs	r5, r5, #26
    1e28:	0f1b      	lsrs	r3, r3, #28
    1e2a:	9001      	str	r0, [sp, #4]
    1e2c:	9100      	str	r1, [sp, #0]
    1e2e:	0e92      	lsrs	r2, r2, #26
    1e30:	4972      	ldr	r1, [pc, #456]	; (1ffc <main+0x7f8>)
    1e32:	9603      	str	r6, [sp, #12]
    1e34:	9502      	str	r5, [sp, #8]
    1e36:	a810      	add	r0, sp, #64	; 0x40
    1e38:	f7ff f9ca 	bl	11d0 <_ZN3Str7appendfEPKcz>
    1e3c:	7a63      	ldrb	r3, [r4, #9]
    1e3e:	2b03      	cmp	r3, #3
    1e40:	d004      	beq.n	1e4c <main+0x648>
    1e42:	2b04      	cmp	r3, #4
    1e44:	d100      	bne.n	1e48 <main+0x644>
    1e46:	e0e7      	b.n	2018 <main+0x814>
    1e48:	2b01      	cmp	r3, #1
    1e4a:	d104      	bne.n	1e56 <main+0x652>
    1e4c:	8962      	ldrh	r2, [r4, #10]
    1e4e:	496c      	ldr	r1, [pc, #432]	; (2000 <main+0x7fc>)
    1e50:	a810      	add	r0, sp, #64	; 0x40
    1e52:	f7ff f9bd 	bl	11d0 <_ZN3Str7appendfEPKcz>
    1e56:	9810      	ldr	r0, [sp, #64]	; 0x40
    1e58:	f000 fc04 	bl	2664 <strlen>
    1e5c:	9b11      	ldr	r3, [sp, #68]	; 0x44
    1e5e:	1c46      	adds	r6, r0, #1
    1e60:	9307      	str	r3, [sp, #28]
    1e62:	02db      	lsls	r3, r3, #11
    1e64:	0005      	movs	r5, r0
    1e66:	0adb      	lsrs	r3, r3, #11
    1e68:	429e      	cmp	r6, r3
    1e6a:	db05      	blt.n	1e78 <main+0x674>
    1e6c:	1c81      	adds	r1, r0, #2
    1e6e:	428b      	cmp	r3, r1
    1e70:	da02      	bge.n	1e78 <main+0x674>
    1e72:	a810      	add	r0, sp, #64	; 0x40
    1e74:	f7fe fda2 	bl	9bc <_ZN3Str7reserveEi.part.0>
    1e78:	220a      	movs	r2, #10
    1e7a:	9b10      	ldr	r3, [sp, #64]	; 0x40
    1e7c:	3424      	adds	r4, #36	; 0x24
    1e7e:	555a      	strb	r2, [r3, r5]
    1e80:	2200      	movs	r2, #0
    1e82:	9307      	str	r3, [sp, #28]
    1e84:	9b10      	ldr	r3, [sp, #64]	; 0x40
    1e86:	559a      	strb	r2, [r3, r6]
    1e88:	e7b5      	b.n	1df6 <main+0x5f2>
    1e8a:	495e      	ldr	r1, [pc, #376]	; (2004 <main+0x800>)
    1e8c:	9809      	ldr	r0, [sp, #36]	; 0x24
    1e8e:	f000 fc15 	bl	26bc <strstr>
    1e92:	2800      	cmp	r0, #0
    1e94:	d095      	beq.n	1dc2 <main+0x5be>
    1e96:	7803      	ldrb	r3, [r0, #0]
    1e98:	2b00      	cmp	r3, #0
    1e9a:	d005      	beq.n	1ea8 <main+0x6a4>
    1e9c:	3b30      	subs	r3, #48	; 0x30
    1e9e:	2b09      	cmp	r3, #9
    1ea0:	d825      	bhi.n	1eee <main+0x6ea>
    1ea2:	f000 f93e 	bl	2122 <atoi>
    1ea6:	0003      	movs	r3, r0
    1ea8:	2140      	movs	r1, #64	; 0x40
    1eaa:	4a57      	ldr	r2, [pc, #348]	; (2008 <main+0x804>)
    1eac:	a81a      	add	r0, sp, #104	; 0x68
    1eae:	f000 fb6b 	bl	2588 <sniprintf>
    1eb2:	0020      	movs	r0, r4
    1eb4:	4e55      	ldr	r6, [pc, #340]	; (200c <main+0x808>)
    1eb6:	4b38      	ldr	r3, [pc, #224]	; (1f98 <main+0x794>)
    1eb8:	0032      	movs	r2, r6
    1eba:	3040      	adds	r0, #64	; 0x40
    1ebc:	a91a      	add	r1, sp, #104	; 0x68
    1ebe:	f7fe fb0f 	bl	4e0 <_ZN3GSM7CommandEPKcS1_j>
    1ec2:	2800      	cmp	r0, #0
    1ec4:	d100      	bne.n	1ec8 <main+0x6c4>
    1ec6:	e77c      	b.n	1dc2 <main+0x5be>
    1ec8:	6ca0      	ldr	r0, [r4, #72]	; 0x48
    1eca:	f7fe fc25 	bl	718 <_ZN6uart_t4readEv>
    1ece:	1e05      	subs	r5, r0, #0
    1ed0:	d100      	bne.n	1ed4 <main+0x6d0>
    1ed2:	e776      	b.n	1dc2 <main+0x5be>
    1ed4:	0031      	movs	r1, r6
    1ed6:	f000 fbf1 	bl	26bc <strstr>
    1eda:	210a      	movs	r1, #10
    1edc:	0007      	movs	r7, r0
    1ede:	f000 fba1 	bl	2624 <strchr>
    1ee2:	2800      	cmp	r0, #0
    1ee4:	d105      	bne.n	1ef2 <main+0x6ee>
    1ee6:	0028      	movs	r0, r5
    1ee8:	f000 fa4c 	bl	2384 <free>
    1eec:	e769      	b.n	1dc2 <main+0x5be>
    1eee:	3001      	adds	r0, #1
    1ef0:	e7d1      	b.n	1e96 <main+0x692>
    1ef2:	1c43      	adds	r3, r0, #1
    1ef4:	0018      	movs	r0, r3
    1ef6:	4946      	ldr	r1, [pc, #280]	; (2010 <main+0x80c>)
    1ef8:	930a      	str	r3, [sp, #40]	; 0x28
    1efa:	f000 fbdf 	bl	26bc <strstr>
    1efe:	2800      	cmp	r0, #0
    1f00:	d0f1      	beq.n	1ee6 <main+0x6e2>
    1f02:	2600      	movs	r6, #0
    1f04:	4943      	ldr	r1, [pc, #268]	; (2014 <main+0x810>)
    1f06:	7006      	strb	r6, [r0, #0]
    1f08:	0038      	movs	r0, r7
    1f0a:	f000 fbd7 	bl	26bc <strstr>
    1f0e:	42b0      	cmp	r0, r6
    1f10:	d0e9      	beq.n	1ee6 <main+0x6e2>
    1f12:	1c83      	adds	r3, r0, #2
    1f14:	2122      	movs	r1, #34	; 0x22
    1f16:	0018      	movs	r0, r3
    1f18:	930b      	str	r3, [sp, #44]	; 0x2c
    1f1a:	f000 fb83 	bl	2624 <strchr>
    1f1e:	2800      	cmp	r0, #0
    1f20:	d0e1      	beq.n	1ee6 <main+0x6e2>
    1f22:	7006      	strb	r6, [r0, #0]
    1f24:	2120      	movs	r1, #32
    1f26:	980a      	ldr	r0, [sp, #40]	; 0x28
    1f28:	f000 fb7c 	bl	2624 <strchr>
    1f2c:	1e03      	subs	r3, r0, #0
    1f2e:	9007      	str	r0, [sp, #28]
    1f30:	d002      	beq.n	1f38 <main+0x734>
    1f32:	3301      	adds	r3, #1
    1f34:	7006      	strb	r6, [r0, #0]
    1f36:	9307      	str	r3, [sp, #28]
    1f38:	230c      	movs	r3, #12
    1f3a:	6ce7      	ldr	r7, [r4, #76]	; 0x4c
    1f3c:	435f      	muls	r7, r3
    1f3e:	6d23      	ldr	r3, [r4, #80]	; 0x50
    1f40:	19df      	adds	r7, r3, r7
    1f42:	001e      	movs	r6, r3
    1f44:	429f      	cmp	r7, r3
    1f46:	d0ce      	beq.n	1ee6 <main+0x6e2>
    1f48:	6818      	ldr	r0, [r3, #0]
    1f4a:	990a      	ldr	r1, [sp, #40]	; 0x28
    1f4c:	f000 fb50 	bl	25f0 <strcasecmp>
    1f50:	0033      	movs	r3, r6
    1f52:	900d      	str	r0, [sp, #52]	; 0x34
    1f54:	330c      	adds	r3, #12
    1f56:	2800      	cmp	r0, #0
    1f58:	d1f3      	bne.n	1f42 <main+0x73e>
    1f5a:	0027      	movs	r7, r4
    1f5c:	3740      	adds	r7, #64	; 0x40
    1f5e:	0038      	movs	r0, r7
    1f60:	990b      	ldr	r1, [sp, #44]	; 0x2c
    1f62:	f7fe fdcd 	bl	b00 <_ZN3GSM11GetNumLevelEPKc>
    1f66:	7a33      	ldrb	r3, [r6, #8]
    1f68:	4283      	cmp	r3, r0
    1f6a:	d806      	bhi.n	1f7a <main+0x776>
    1f6c:	0020      	movs	r0, r4
    1f6e:	6873      	ldr	r3, [r6, #4]
    1f70:	9a07      	ldr	r2, [sp, #28]
    1f72:	990b      	ldr	r1, [sp, #44]	; 0x2c
    1f74:	3040      	adds	r0, #64	; 0x40
    1f76:	4798      	blx	r3
    1f78:	e7b5      	b.n	1ee6 <main+0x6e2>
    1f7a:	0038      	movs	r0, r7
    1f7c:	990d      	ldr	r1, [sp, #52]	; 0x34
    1f7e:	f7ff f9db 	bl	1338 <_ZN3GSM9GetAllNumEP6VectorIPcE>
    1f82:	2800      	cmp	r0, #0
    1f84:	d0f2      	beq.n	1f6c <main+0x768>
    1f86:	e7ae      	b.n	1ee6 <main+0x6e2>
    1f88:	0000400e 	.word	0x0000400e
    1f8c:	42000c00 	.word	0x42000c00
    1f90:	e000e100 	.word	0xe000e100
    1f94:	40000c00 	.word	0x40000c00
    1f98:	00000bb8 	.word	0x00000bb8
    1f9c:	00003342 	.word	0x00003342
    1fa0:	00003347 	.word	0x00003347
    1fa4:	00003352 	.word	0x00003352
    1fa8:	0000335b 	.word	0x0000335b
    1fac:	00003365 	.word	0x00003365
    1fb0:	00000202 	.word	0x00000202
    1fb4:	40000438 	.word	0x40000438
    1fb8:	00003378 	.word	0x00003378
    1fbc:	00002fb4 	.word	0x00002fb4
    1fc0:	000033b7 	.word	0x000033b7
    1fc4:	00000cd5 	.word	0x00000cd5
    1fc8:	000033bf 	.word	0x000033bf
    1fcc:	00000661 	.word	0x00000661
    1fd0:	00002001 	.word	0x00002001
    1fd4:	00010301 	.word	0x00010301
    1fd8:	00004104 	.word	0x00004104
    1fdc:	40001400 	.word	0x40001400
    1fe0:	00000a08 	.word	0x00000a08
    1fe4:	40001418 	.word	0x40001418
    1fe8:	20000108 	.word	0x20000108
    1fec:	000033c5 	.word	0x000033c5
    1ff0:	000033ca 	.word	0x000033ca
    1ff4:	20000048 	.word	0x20000048
    1ff8:	00002f34 	.word	0x00002f34
    1ffc:	000033ef 	.word	0x000033ef
    2000:	00003422 	.word	0x00003422
    2004:	000033ce 	.word	0x000033ce
    2008:	000033d4 	.word	0x000033d4
    200c:	000033df 	.word	0x000033df
    2010:	000033e5 	.word	0x000033e5
    2014:	000033ec 	.word	0x000033ec
    2018:	7ba1      	ldrb	r1, [r4, #14]
    201a:	89a3      	ldrh	r3, [r4, #12]
    201c:	8962      	ldrh	r2, [r4, #10]
    201e:	a810      	add	r0, sp, #64	; 0x40
    2020:	9100      	str	r1, [sp, #0]
    2022:	492d      	ldr	r1, [pc, #180]	; (20d8 <main+0x8d4>)
    2024:	f7ff f8d4 	bl	11d0 <_ZN3Str7appendfEPKcz>
    2028:	e715      	b.n	1e56 <main+0x652>
    202a:	4d2c      	ldr	r5, [pc, #176]	; (20dc <main+0x8d8>)
    202c:	9e10      	ldr	r6, [sp, #64]	; 0x40
    202e:	002c      	movs	r4, r5
    2030:	3440      	adds	r4, #64	; 0x40
    2032:	0020      	movs	r0, r4
    2034:	f7fe feda 	bl	dec <_ZN3GSM8SetupFTPEv>
    2038:	2800      	cmp	r0, #0
    203a:	d02f      	beq.n	209c <main+0x898>
    203c:	2200      	movs	r2, #0
    203e:	4b28      	ldr	r3, [pc, #160]	; (20e0 <main+0x8dc>)
    2040:	4928      	ldr	r1, [pc, #160]	; (20e4 <main+0x8e0>)
    2042:	0020      	movs	r0, r4
    2044:	f7fe fa4c 	bl	4e0 <_ZN3GSM7CommandEPKcS1_j>
    2048:	4927      	ldr	r1, [pc, #156]	; (20e8 <main+0x8e4>)
    204a:	6ca8      	ldr	r0, [r5, #72]	; 0x48
    204c:	f7fe f86e 	bl	12c <_ZN6uart_t5printEPKci.constprop.0>
    2050:	2200      	movs	r2, #0
    2052:	4b23      	ldr	r3, [pc, #140]	; (20e0 <main+0x8dc>)
    2054:	4925      	ldr	r1, [pc, #148]	; (20ec <main+0x8e8>)
    2056:	0020      	movs	r0, r4
    2058:	f7fe fa42 	bl	4e0 <_ZN3GSM7CommandEPKcS1_j>
    205c:	2200      	movs	r2, #0
    205e:	0020      	movs	r0, r4
    2060:	4b1f      	ldr	r3, [pc, #124]	; (20e0 <main+0x8dc>)
    2062:	4923      	ldr	r1, [pc, #140]	; (20f0 <main+0x8ec>)
    2064:	f7fe fa3c 	bl	4e0 <_ZN3GSM7CommandEPKcS1_j>
    2068:	0020      	movs	r0, r4
    206a:	f7fe fabf 	bl	5ec <_ZN3GSM12InitInternetEv>
    206e:	2800      	cmp	r0, #0
    2070:	d014      	beq.n	209c <main+0x898>
    2072:	2200      	movs	r2, #0
    2074:	4b1a      	ldr	r3, [pc, #104]	; (20e0 <main+0x8dc>)
    2076:	491f      	ldr	r1, [pc, #124]	; (20f4 <main+0x8f0>)
    2078:	0020      	movs	r0, r4
    207a:	f7fe fa31 	bl	4e0 <_ZN3GSM7CommandEPKcS1_j>
    207e:	0020      	movs	r0, r4
    2080:	4b1d      	ldr	r3, [pc, #116]	; (20f8 <main+0x8f4>)
    2082:	4a1e      	ldr	r2, [pc, #120]	; (20fc <main+0x8f8>)
    2084:	491e      	ldr	r1, [pc, #120]	; (2100 <main+0x8fc>)
    2086:	f7fe fa2b 	bl	4e0 <_ZN3GSM7CommandEPKcS1_j>
    208a:	2800      	cmp	r0, #0
    208c:	d10a      	bne.n	20a4 <main+0x8a0>
    208e:	0028      	movs	r0, r5
    2090:	2200      	movs	r2, #0
    2092:	4b13      	ldr	r3, [pc, #76]	; (20e0 <main+0x8dc>)
    2094:	491b      	ldr	r1, [pc, #108]	; (2104 <main+0x900>)
    2096:	3040      	adds	r0, #64	; 0x40
    2098:	f7fe fa22 	bl	4e0 <_ZN3GSM7CommandEPKcS1_j>
    209c:	a810      	add	r0, sp, #64	; 0x40
    209e:	f7fe faf8 	bl	692 <_ZN3StrD1Ev>
    20a2:	e674      	b.n	1d8e <main+0x58a>
    20a4:	0030      	movs	r0, r6
    20a6:	f000 fadd 	bl	2664 <strlen>
    20aa:	2140      	movs	r1, #64	; 0x40
    20ac:	0003      	movs	r3, r0
    20ae:	4a16      	ldr	r2, [pc, #88]	; (2108 <main+0x904>)
    20b0:	a81a      	add	r0, sp, #104	; 0x68
    20b2:	f000 fa69 	bl	2588 <sniprintf>
    20b6:	2200      	movs	r2, #0
    20b8:	4b09      	ldr	r3, [pc, #36]	; (20e0 <main+0x8dc>)
    20ba:	a91a      	add	r1, sp, #104	; 0x68
    20bc:	0020      	movs	r0, r4
    20be:	f7fe fa0f 	bl	4e0 <_ZN3GSM7CommandEPKcS1_j>
    20c2:	0031      	movs	r1, r6
    20c4:	6ca8      	ldr	r0, [r5, #72]	; 0x48
    20c6:	f7fe f831 	bl	12c <_ZN6uart_t5printEPKci.constprop.0>
    20ca:	0020      	movs	r0, r4
    20cc:	4b0a      	ldr	r3, [pc, #40]	; (20f8 <main+0x8f4>)
    20ce:	4a0f      	ldr	r2, [pc, #60]	; (210c <main+0x908>)
    20d0:	490f      	ldr	r1, [pc, #60]	; (2110 <main+0x90c>)
    20d2:	f7fe fa05 	bl	4e0 <_ZN3GSM7CommandEPKcS1_j>
    20d6:	e7da      	b.n	208e <main+0x88a>
    20d8:	0000342c 	.word	0x0000342c
    20dc:	20000108 	.word	0x20000108
    20e0:	00000bb8 	.word	0x00000bb8
    20e4:	00003449 	.word	0x00003449
    20e8:	00003459 	.word	0x00003459
    20ec:	00003468 	.word	0x00003468
    20f0:	00003471 	.word	0x00003471
    20f4:	00003485 	.word	0x00003485
    20f8:	000124f8 	.word	0x000124f8
    20fc:	00003491 	.word	0x00003491
    2100:	000030a4 	.word	0x000030a4
    2104:	00003014 	.word	0x00003014
    2108:	0000349f 	.word	0x0000349f
    210c:	000034ae 	.word	0x000034ae
    2110:	000034bb 	.word	0x000034bb

00002114 <__aeabi_atexit>:
    2114:	0003      	movs	r3, r0
    2116:	b510      	push	{r4, lr}
    2118:	0008      	movs	r0, r1
    211a:	0019      	movs	r1, r3
    211c:	f000 f808 	bl	2130 <__cxa_atexit>
    2120:	bd10      	pop	{r4, pc}

00002122 <atoi>:
    2122:	b510      	push	{r4, lr}
    2124:	220a      	movs	r2, #10
    2126:	2100      	movs	r1, #0
    2128:	f000 f916 	bl	2358 <strtol>
    212c:	bd10      	pop	{r4, pc}
    212e:	Address 0x0000212e is out of bounds.


00002130 <__cxa_atexit>:
    2130:	b510      	push	{r4, lr}
    2132:	0004      	movs	r4, r0
    2134:	4804      	ldr	r0, [pc, #16]	; (2148 <__cxa_atexit+0x18>)
    2136:	0013      	movs	r3, r2
    2138:	2800      	cmp	r0, #0
    213a:	d004      	beq.n	2146 <__cxa_atexit+0x16>
    213c:	000a      	movs	r2, r1
    213e:	2002      	movs	r0, #2
    2140:	0021      	movs	r1, r4
    2142:	e000      	b.n	2146 <__cxa_atexit+0x16>
    2144:	bf00      	nop
    2146:	bd10      	pop	{r4, pc}
    2148:	00000000 	.word	0x00000000

0000214c <__libc_init_array>:
    214c:	b570      	push	{r4, r5, r6, lr}
    214e:	2600      	movs	r6, #0
    2150:	4d0c      	ldr	r5, [pc, #48]	; (2184 <__libc_init_array+0x38>)
    2152:	4c0d      	ldr	r4, [pc, #52]	; (2188 <__libc_init_array+0x3c>)
    2154:	1b64      	subs	r4, r4, r5
    2156:	10a4      	asrs	r4, r4, #2
    2158:	42a6      	cmp	r6, r4
    215a:	d109      	bne.n	2170 <__libc_init_array+0x24>
    215c:	2600      	movs	r6, #0
    215e:	f001 fa4f 	bl	3600 <_init>
    2162:	4d0a      	ldr	r5, [pc, #40]	; (218c <__libc_init_array+0x40>)
    2164:	4c0a      	ldr	r4, [pc, #40]	; (2190 <__libc_init_array+0x44>)
    2166:	1b64      	subs	r4, r4, r5
    2168:	10a4      	asrs	r4, r4, #2
    216a:	42a6      	cmp	r6, r4
    216c:	d105      	bne.n	217a <__libc_init_array+0x2e>
    216e:	bd70      	pop	{r4, r5, r6, pc}
    2170:	00b3      	lsls	r3, r6, #2
    2172:	58eb      	ldr	r3, [r5, r3]
    2174:	4798      	blx	r3
    2176:	3601      	adds	r6, #1
    2178:	e7ee      	b.n	2158 <__libc_init_array+0xc>
    217a:	00b3      	lsls	r3, r6, #2
    217c:	58eb      	ldr	r3, [r5, r3]
    217e:	4798      	blx	r3
    2180:	3601      	adds	r6, #1
    2182:	e7f2      	b.n	216a <__libc_init_array+0x1e>
    2184:	0000360c 	.word	0x0000360c
    2188:	0000360c 	.word	0x0000360c
    218c:	0000360c 	.word	0x0000360c
    2190:	00003614 	.word	0x00003614

00002194 <memset>:
    2194:	0003      	movs	r3, r0
    2196:	1882      	adds	r2, r0, r2
    2198:	4293      	cmp	r3, r2
    219a:	d100      	bne.n	219e <memset+0xa>
    219c:	4770      	bx	lr
    219e:	7019      	strb	r1, [r3, #0]
    21a0:	3301      	adds	r3, #1
    21a2:	e7f9      	b.n	2198 <memset+0x4>

000021a4 <strtok>:
    21a4:	b5f8      	push	{r3, r4, r5, r6, r7, lr}
    21a6:	4b12      	ldr	r3, [pc, #72]	; (21f0 <strtok+0x4c>)
    21a8:	0005      	movs	r5, r0
    21aa:	681f      	ldr	r7, [r3, #0]
    21ac:	000e      	movs	r6, r1
    21ae:	6dbc      	ldr	r4, [r7, #88]	; 0x58
    21b0:	2c00      	cmp	r4, #0
    21b2:	d116      	bne.n	21e2 <strtok+0x3e>
    21b4:	2050      	movs	r0, #80	; 0x50
    21b6:	f000 f8db 	bl	2370 <malloc>
    21ba:	65b8      	str	r0, [r7, #88]	; 0x58
    21bc:	6004      	str	r4, [r0, #0]
    21be:	6044      	str	r4, [r0, #4]
    21c0:	6084      	str	r4, [r0, #8]
    21c2:	60c4      	str	r4, [r0, #12]
    21c4:	6104      	str	r4, [r0, #16]
    21c6:	6144      	str	r4, [r0, #20]
    21c8:	6184      	str	r4, [r0, #24]
    21ca:	6284      	str	r4, [r0, #40]	; 0x28
    21cc:	62c4      	str	r4, [r0, #44]	; 0x2c
    21ce:	6304      	str	r4, [r0, #48]	; 0x30
    21d0:	6344      	str	r4, [r0, #52]	; 0x34
    21d2:	6384      	str	r4, [r0, #56]	; 0x38
    21d4:	63c4      	str	r4, [r0, #60]	; 0x3c
    21d6:	6404      	str	r4, [r0, #64]	; 0x40
    21d8:	6444      	str	r4, [r0, #68]	; 0x44
    21da:	6484      	str	r4, [r0, #72]	; 0x48
    21dc:	64c4      	str	r4, [r0, #76]	; 0x4c
    21de:	7704      	strb	r4, [r0, #28]
    21e0:	6244      	str	r4, [r0, #36]	; 0x24
    21e2:	0031      	movs	r1, r6
    21e4:	0028      	movs	r0, r5
    21e6:	6dba      	ldr	r2, [r7, #88]	; 0x58
    21e8:	2301      	movs	r3, #1
    21ea:	f000 f803 	bl	21f4 <__strtok_r>
    21ee:	bdf8      	pop	{r3, r4, r5, r6, r7, pc}
    21f0:	20000080 	.word	0x20000080

000021f4 <__strtok_r>:
    21f4:	b5f0      	push	{r4, r5, r6, r7, lr}
    21f6:	2800      	cmp	r0, #0
    21f8:	d102      	bne.n	2200 <__strtok_r+0xc>
    21fa:	6810      	ldr	r0, [r2, #0]
    21fc:	2800      	cmp	r0, #0
    21fe:	d013      	beq.n	2228 <__strtok_r+0x34>
    2200:	0004      	movs	r4, r0
    2202:	0020      	movs	r0, r4
    2204:	000e      	movs	r6, r1
    2206:	7805      	ldrb	r5, [r0, #0]
    2208:	3401      	adds	r4, #1
    220a:	7837      	ldrb	r7, [r6, #0]
    220c:	2f00      	cmp	r7, #0
    220e:	d104      	bne.n	221a <__strtok_r+0x26>
    2210:	2d00      	cmp	r5, #0
    2212:	d10f      	bne.n	2234 <__strtok_r+0x40>
    2214:	0028      	movs	r0, r5
    2216:	6015      	str	r5, [r2, #0]
    2218:	e006      	b.n	2228 <__strtok_r+0x34>
    221a:	3601      	adds	r6, #1
    221c:	42bd      	cmp	r5, r7
    221e:	d1f4      	bne.n	220a <__strtok_r+0x16>
    2220:	2b00      	cmp	r3, #0
    2222:	d1ee      	bne.n	2202 <__strtok_r+0xe>
    2224:	6014      	str	r4, [r2, #0]
    2226:	7003      	strb	r3, [r0, #0]
    2228:	bdf0      	pop	{r4, r5, r6, r7, pc}
    222a:	002f      	movs	r7, r5
    222c:	e00f      	b.n	224e <__strtok_r+0x5a>
    222e:	3301      	adds	r3, #1
    2230:	2e00      	cmp	r6, #0
    2232:	d104      	bne.n	223e <__strtok_r+0x4a>
    2234:	0023      	movs	r3, r4
    2236:	3401      	adds	r4, #1
    2238:	781d      	ldrb	r5, [r3, #0]
    223a:	0027      	movs	r7, r4
    223c:	000b      	movs	r3, r1
    223e:	781e      	ldrb	r6, [r3, #0]
    2240:	42b5      	cmp	r5, r6
    2242:	d1f4      	bne.n	222e <__strtok_r+0x3a>
    2244:	2d00      	cmp	r5, #0
    2246:	d0f0      	beq.n	222a <__strtok_r+0x36>
    2248:	2300      	movs	r3, #0
    224a:	3c01      	subs	r4, #1
    224c:	7023      	strb	r3, [r4, #0]
    224e:	6017      	str	r7, [r2, #0]
    2250:	e7ea      	b.n	2228 <__strtok_r+0x34>
    2252:	Address 0x00002252 is out of bounds.


00002254 <_strtol_l.isra.0>:
    2254:	b5f0      	push	{r4, r5, r6, r7, lr}
    2256:	001e      	movs	r6, r3
    2258:	4b3d      	ldr	r3, [pc, #244]	; (2350 <_strtol_l.isra.0+0xfc>)
    225a:	b087      	sub	sp, #28
    225c:	9005      	str	r0, [sp, #20]
    225e:	9202      	str	r2, [sp, #8]
    2260:	0008      	movs	r0, r1
    2262:	469c      	mov	ip, r3
    2264:	2208      	movs	r2, #8
    2266:	9101      	str	r1, [sp, #4]
    2268:	0003      	movs	r3, r0
    226a:	4661      	mov	r1, ip
    226c:	781c      	ldrb	r4, [r3, #0]
    226e:	1c45      	adds	r5, r0, #1
    2270:	5d09      	ldrb	r1, [r1, r4]
    2272:	0028      	movs	r0, r5
    2274:	000f      	movs	r7, r1
    2276:	4017      	ands	r7, r2
    2278:	4211      	tst	r1, r2
    227a:	d1f5      	bne.n	2268 <_strtol_l.isra.0+0x14>
    227c:	2c2d      	cmp	r4, #45	; 0x2d
    227e:	d133      	bne.n	22e8 <_strtol_l.isra.0+0x94>
    2280:	2701      	movs	r7, #1
    2282:	782c      	ldrb	r4, [r5, #0]
    2284:	1c9d      	adds	r5, r3, #2
    2286:	2e00      	cmp	r6, #0
    2288:	d05d      	beq.n	2346 <_strtol_l.isra.0+0xf2>
    228a:	2e10      	cmp	r6, #16
    228c:	d109      	bne.n	22a2 <_strtol_l.isra.0+0x4e>
    228e:	2c30      	cmp	r4, #48	; 0x30
    2290:	d107      	bne.n	22a2 <_strtol_l.isra.0+0x4e>
    2292:	2220      	movs	r2, #32
    2294:	782b      	ldrb	r3, [r5, #0]
    2296:	4393      	bics	r3, r2
    2298:	2b58      	cmp	r3, #88	; 0x58
    229a:	d14f      	bne.n	233c <_strtol_l.isra.0+0xe8>
    229c:	2610      	movs	r6, #16
    229e:	786c      	ldrb	r4, [r5, #1]
    22a0:	3502      	adds	r5, #2
    22a2:	4b2c      	ldr	r3, [pc, #176]	; (2354 <_strtol_l.isra.0+0x100>)
    22a4:	0031      	movs	r1, r6
    22a6:	18fb      	adds	r3, r7, r3
    22a8:	0018      	movs	r0, r3
    22aa:	9303      	str	r3, [sp, #12]
    22ac:	f000 fe0a 	bl	2ec4 <__aeabi_uidivmod>
    22b0:	2300      	movs	r3, #0
    22b2:	2201      	movs	r2, #1
    22b4:	4684      	mov	ip, r0
    22b6:	0018      	movs	r0, r3
    22b8:	9104      	str	r1, [sp, #16]
    22ba:	4252      	negs	r2, r2
    22bc:	0021      	movs	r1, r4
    22be:	3930      	subs	r1, #48	; 0x30
    22c0:	2909      	cmp	r1, #9
    22c2:	d816      	bhi.n	22f2 <_strtol_l.isra.0+0x9e>
    22c4:	000c      	movs	r4, r1
    22c6:	42a6      	cmp	r6, r4
    22c8:	dd1f      	ble.n	230a <_strtol_l.isra.0+0xb6>
    22ca:	1c59      	adds	r1, r3, #1
    22cc:	d009      	beq.n	22e2 <_strtol_l.isra.0+0x8e>
    22ce:	0013      	movs	r3, r2
    22d0:	4584      	cmp	ip, r0
    22d2:	d306      	bcc.n	22e2 <_strtol_l.isra.0+0x8e>
    22d4:	d102      	bne.n	22dc <_strtol_l.isra.0+0x88>
    22d6:	9904      	ldr	r1, [sp, #16]
    22d8:	42a1      	cmp	r1, r4
    22da:	db02      	blt.n	22e2 <_strtol_l.isra.0+0x8e>
    22dc:	2301      	movs	r3, #1
    22de:	4370      	muls	r0, r6
    22e0:	1820      	adds	r0, r4, r0
    22e2:	782c      	ldrb	r4, [r5, #0]
    22e4:	3501      	adds	r5, #1
    22e6:	e7e9      	b.n	22bc <_strtol_l.isra.0+0x68>
    22e8:	2c2b      	cmp	r4, #43	; 0x2b
    22ea:	d1cc      	bne.n	2286 <_strtol_l.isra.0+0x32>
    22ec:	782c      	ldrb	r4, [r5, #0]
    22ee:	1c9d      	adds	r5, r3, #2
    22f0:	e7c9      	b.n	2286 <_strtol_l.isra.0+0x32>
    22f2:	0021      	movs	r1, r4
    22f4:	3941      	subs	r1, #65	; 0x41
    22f6:	2919      	cmp	r1, #25
    22f8:	d801      	bhi.n	22fe <_strtol_l.isra.0+0xaa>
    22fa:	3c37      	subs	r4, #55	; 0x37
    22fc:	e7e3      	b.n	22c6 <_strtol_l.isra.0+0x72>
    22fe:	0021      	movs	r1, r4
    2300:	3961      	subs	r1, #97	; 0x61
    2302:	2919      	cmp	r1, #25
    2304:	d801      	bhi.n	230a <_strtol_l.isra.0+0xb6>
    2306:	3c57      	subs	r4, #87	; 0x57
    2308:	e7dd      	b.n	22c6 <_strtol_l.isra.0+0x72>
    230a:	1c5a      	adds	r2, r3, #1
    230c:	d108      	bne.n	2320 <_strtol_l.isra.0+0xcc>
    230e:	9a05      	ldr	r2, [sp, #20]
    2310:	3323      	adds	r3, #35	; 0x23
    2312:	6013      	str	r3, [r2, #0]
    2314:	9b02      	ldr	r3, [sp, #8]
    2316:	9803      	ldr	r0, [sp, #12]
    2318:	2b00      	cmp	r3, #0
    231a:	d109      	bne.n	2330 <_strtol_l.isra.0+0xdc>
    231c:	b007      	add	sp, #28
    231e:	bdf0      	pop	{r4, r5, r6, r7, pc}
    2320:	2f00      	cmp	r7, #0
    2322:	d000      	beq.n	2326 <_strtol_l.isra.0+0xd2>
    2324:	4240      	negs	r0, r0
    2326:	9a02      	ldr	r2, [sp, #8]
    2328:	2a00      	cmp	r2, #0
    232a:	d0f7      	beq.n	231c <_strtol_l.isra.0+0xc8>
    232c:	2b00      	cmp	r3, #0
    232e:	d001      	beq.n	2334 <_strtol_l.isra.0+0xe0>
    2330:	1e6b      	subs	r3, r5, #1
    2332:	9301      	str	r3, [sp, #4]
    2334:	9b02      	ldr	r3, [sp, #8]
    2336:	9a01      	ldr	r2, [sp, #4]
    2338:	601a      	str	r2, [r3, #0]
    233a:	e7ef      	b.n	231c <_strtol_l.isra.0+0xc8>
    233c:	2430      	movs	r4, #48	; 0x30
    233e:	2e00      	cmp	r6, #0
    2340:	d1af      	bne.n	22a2 <_strtol_l.isra.0+0x4e>
    2342:	3608      	adds	r6, #8
    2344:	e7ad      	b.n	22a2 <_strtol_l.isra.0+0x4e>
    2346:	2c30      	cmp	r4, #48	; 0x30
    2348:	d0a3      	beq.n	2292 <_strtol_l.isra.0+0x3e>
    234a:	260a      	movs	r6, #10
    234c:	e7a9      	b.n	22a2 <_strtol_l.isra.0+0x4e>
    234e:	46c0      	nop			; (mov r8, r8)
    2350:	000034ca 	.word	0x000034ca
    2354:	7fffffff 	.word	0x7fffffff

00002358 <strtol>:
    2358:	b510      	push	{r4, lr}
    235a:	0013      	movs	r3, r2
    235c:	000a      	movs	r2, r1
    235e:	0001      	movs	r1, r0
    2360:	4802      	ldr	r0, [pc, #8]	; (236c <strtol+0x14>)
    2362:	6800      	ldr	r0, [r0, #0]
    2364:	f7ff ff76 	bl	2254 <_strtol_l.isra.0>
    2368:	bd10      	pop	{r4, pc}
    236a:	46c0      	nop			; (mov r8, r8)
    236c:	20000080 	.word	0x20000080

00002370 <malloc>:
    2370:	b510      	push	{r4, lr}
    2372:	4b03      	ldr	r3, [pc, #12]	; (2380 <malloc+0x10>)
    2374:	0001      	movs	r1, r0
    2376:	6818      	ldr	r0, [r3, #0]
    2378:	f000 f858 	bl	242c <_malloc_r>
    237c:	bd10      	pop	{r4, pc}
    237e:	46c0      	nop			; (mov r8, r8)
    2380:	20000080 	.word	0x20000080

00002384 <free>:
    2384:	b510      	push	{r4, lr}
    2386:	4b03      	ldr	r3, [pc, #12]	; (2394 <free+0x10>)
    2388:	0001      	movs	r1, r0
    238a:	6818      	ldr	r0, [r3, #0]
    238c:	f000 f804 	bl	2398 <_free_r>
    2390:	bd10      	pop	{r4, pc}
    2392:	46c0      	nop			; (mov r8, r8)
    2394:	20000080 	.word	0x20000080

00002398 <_free_r>:
    2398:	b570      	push	{r4, r5, r6, lr}
    239a:	0005      	movs	r5, r0
    239c:	2900      	cmp	r1, #0
    239e:	d010      	beq.n	23c2 <_free_r+0x2a>
    23a0:	1f0c      	subs	r4, r1, #4
    23a2:	6823      	ldr	r3, [r4, #0]
    23a4:	2b00      	cmp	r3, #0
    23a6:	da00      	bge.n	23aa <_free_r+0x12>
    23a8:	18e4      	adds	r4, r4, r3
    23aa:	0028      	movs	r0, r5
    23ac:	f000 f8ae 	bl	250c <__malloc_lock>
    23b0:	4a1d      	ldr	r2, [pc, #116]	; (2428 <_free_r+0x90>)
    23b2:	6813      	ldr	r3, [r2, #0]
    23b4:	2b00      	cmp	r3, #0
    23b6:	d105      	bne.n	23c4 <_free_r+0x2c>
    23b8:	6063      	str	r3, [r4, #4]
    23ba:	6014      	str	r4, [r2, #0]
    23bc:	0028      	movs	r0, r5
    23be:	f000 f8ad 	bl	251c <__malloc_unlock>
    23c2:	bd70      	pop	{r4, r5, r6, pc}
    23c4:	42a3      	cmp	r3, r4
    23c6:	d908      	bls.n	23da <_free_r+0x42>
    23c8:	6821      	ldr	r1, [r4, #0]
    23ca:	1860      	adds	r0, r4, r1
    23cc:	4283      	cmp	r3, r0
    23ce:	d1f3      	bne.n	23b8 <_free_r+0x20>
    23d0:	6818      	ldr	r0, [r3, #0]
    23d2:	685b      	ldr	r3, [r3, #4]
    23d4:	1841      	adds	r1, r0, r1
    23d6:	6021      	str	r1, [r4, #0]
    23d8:	e7ee      	b.n	23b8 <_free_r+0x20>
    23da:	001a      	movs	r2, r3
    23dc:	685b      	ldr	r3, [r3, #4]
    23de:	2b00      	cmp	r3, #0
    23e0:	d001      	beq.n	23e6 <_free_r+0x4e>
    23e2:	42a3      	cmp	r3, r4
    23e4:	d9f9      	bls.n	23da <_free_r+0x42>
    23e6:	6811      	ldr	r1, [r2, #0]
    23e8:	1850      	adds	r0, r2, r1
    23ea:	42a0      	cmp	r0, r4
    23ec:	d10b      	bne.n	2406 <_free_r+0x6e>
    23ee:	6820      	ldr	r0, [r4, #0]
    23f0:	1809      	adds	r1, r1, r0
    23f2:	1850      	adds	r0, r2, r1
    23f4:	6011      	str	r1, [r2, #0]
    23f6:	4283      	cmp	r3, r0
    23f8:	d1e0      	bne.n	23bc <_free_r+0x24>
    23fa:	6818      	ldr	r0, [r3, #0]
    23fc:	685b      	ldr	r3, [r3, #4]
    23fe:	1841      	adds	r1, r0, r1
    2400:	6011      	str	r1, [r2, #0]
    2402:	6053      	str	r3, [r2, #4]
    2404:	e7da      	b.n	23bc <_free_r+0x24>
    2406:	42a0      	cmp	r0, r4
    2408:	d902      	bls.n	2410 <_free_r+0x78>
    240a:	230c      	movs	r3, #12
    240c:	602b      	str	r3, [r5, #0]
    240e:	e7d5      	b.n	23bc <_free_r+0x24>
    2410:	6821      	ldr	r1, [r4, #0]
    2412:	1860      	adds	r0, r4, r1
    2414:	4283      	cmp	r3, r0
    2416:	d103      	bne.n	2420 <_free_r+0x88>
    2418:	6818      	ldr	r0, [r3, #0]
    241a:	685b      	ldr	r3, [r3, #4]
    241c:	1841      	adds	r1, r0, r1
    241e:	6021      	str	r1, [r4, #0]
    2420:	6063      	str	r3, [r4, #4]
    2422:	6054      	str	r4, [r2, #4]
    2424:	e7ca      	b.n	23bc <_free_r+0x24>
    2426:	46c0      	nop			; (mov r8, r8)
    2428:	2000057c 	.word	0x2000057c

0000242c <_malloc_r>:
    242c:	b5f8      	push	{r3, r4, r5, r6, r7, lr}
    242e:	2303      	movs	r3, #3
    2430:	1ccd      	adds	r5, r1, #3
    2432:	439d      	bics	r5, r3
    2434:	3508      	adds	r5, #8
    2436:	0006      	movs	r6, r0
    2438:	2d0c      	cmp	r5, #12
    243a:	d21f      	bcs.n	247c <_malloc_r+0x50>
    243c:	250c      	movs	r5, #12
    243e:	42a9      	cmp	r1, r5
    2440:	d81e      	bhi.n	2480 <_malloc_r+0x54>
    2442:	0030      	movs	r0, r6
    2444:	f000 f862 	bl	250c <__malloc_lock>
    2448:	4925      	ldr	r1, [pc, #148]	; (24e0 <_malloc_r+0xb4>)
    244a:	680a      	ldr	r2, [r1, #0]
    244c:	0014      	movs	r4, r2
    244e:	2c00      	cmp	r4, #0
    2450:	d11a      	bne.n	2488 <_malloc_r+0x5c>
    2452:	4f24      	ldr	r7, [pc, #144]	; (24e4 <_malloc_r+0xb8>)
    2454:	683b      	ldr	r3, [r7, #0]
    2456:	2b00      	cmp	r3, #0
    2458:	d104      	bne.n	2464 <_malloc_r+0x38>
    245a:	0021      	movs	r1, r4
    245c:	0030      	movs	r0, r6
    245e:	f000 f843 	bl	24e8 <_sbrk_r>
    2462:	6038      	str	r0, [r7, #0]
    2464:	0029      	movs	r1, r5
    2466:	0030      	movs	r0, r6
    2468:	f000 f83e 	bl	24e8 <_sbrk_r>
    246c:	1c43      	adds	r3, r0, #1
    246e:	d12b      	bne.n	24c8 <_malloc_r+0x9c>
    2470:	230c      	movs	r3, #12
    2472:	0030      	movs	r0, r6
    2474:	6033      	str	r3, [r6, #0]
    2476:	f000 f851 	bl	251c <__malloc_unlock>
    247a:	e003      	b.n	2484 <_malloc_r+0x58>
    247c:	2d00      	cmp	r5, #0
    247e:	dade      	bge.n	243e <_malloc_r+0x12>
    2480:	230c      	movs	r3, #12
    2482:	6033      	str	r3, [r6, #0]
    2484:	2000      	movs	r0, #0
    2486:	bdf8      	pop	{r3, r4, r5, r6, r7, pc}
    2488:	6823      	ldr	r3, [r4, #0]
    248a:	1b5b      	subs	r3, r3, r5
    248c:	d419      	bmi.n	24c2 <_malloc_r+0x96>
    248e:	2b0b      	cmp	r3, #11
    2490:	d903      	bls.n	249a <_malloc_r+0x6e>
    2492:	6023      	str	r3, [r4, #0]
    2494:	18e4      	adds	r4, r4, r3
    2496:	6025      	str	r5, [r4, #0]
    2498:	e003      	b.n	24a2 <_malloc_r+0x76>
    249a:	6863      	ldr	r3, [r4, #4]
    249c:	42a2      	cmp	r2, r4
    249e:	d10e      	bne.n	24be <_malloc_r+0x92>
    24a0:	600b      	str	r3, [r1, #0]
    24a2:	0030      	movs	r0, r6
    24a4:	f000 f83a 	bl	251c <__malloc_unlock>
    24a8:	0020      	movs	r0, r4
    24aa:	2207      	movs	r2, #7
    24ac:	300b      	adds	r0, #11
    24ae:	1d23      	adds	r3, r4, #4
    24b0:	4390      	bics	r0, r2
    24b2:	1ac2      	subs	r2, r0, r3
    24b4:	4298      	cmp	r0, r3
    24b6:	d0e6      	beq.n	2486 <_malloc_r+0x5a>
    24b8:	1a1b      	subs	r3, r3, r0
    24ba:	50a3      	str	r3, [r4, r2]
    24bc:	e7e3      	b.n	2486 <_malloc_r+0x5a>
    24be:	6053      	str	r3, [r2, #4]
    24c0:	e7ef      	b.n	24a2 <_malloc_r+0x76>
    24c2:	0022      	movs	r2, r4
    24c4:	6864      	ldr	r4, [r4, #4]
    24c6:	e7c2      	b.n	244e <_malloc_r+0x22>
    24c8:	2303      	movs	r3, #3
    24ca:	1cc4      	adds	r4, r0, #3
    24cc:	439c      	bics	r4, r3
    24ce:	42a0      	cmp	r0, r4
    24d0:	d0e1      	beq.n	2496 <_malloc_r+0x6a>
    24d2:	1a21      	subs	r1, r4, r0
    24d4:	0030      	movs	r0, r6
    24d6:	f000 f807 	bl	24e8 <_sbrk_r>
    24da:	1c43      	adds	r3, r0, #1
    24dc:	d1db      	bne.n	2496 <_malloc_r+0x6a>
    24de:	e7c7      	b.n	2470 <_malloc_r+0x44>
    24e0:	2000057c 	.word	0x2000057c
    24e4:	20000580 	.word	0x20000580

000024e8 <_sbrk_r>:
    24e8:	2300      	movs	r3, #0
    24ea:	b570      	push	{r4, r5, r6, lr}
    24ec:	4d06      	ldr	r5, [pc, #24]	; (2508 <_sbrk_r+0x20>)
    24ee:	0004      	movs	r4, r0
    24f0:	0008      	movs	r0, r1
    24f2:	602b      	str	r3, [r5, #0]
    24f4:	f7fe ffbb 	bl	146e <_sbrk>
    24f8:	1c43      	adds	r3, r0, #1
    24fa:	d103      	bne.n	2504 <_sbrk_r+0x1c>
    24fc:	682b      	ldr	r3, [r5, #0]
    24fe:	2b00      	cmp	r3, #0
    2500:	d000      	beq.n	2504 <_sbrk_r+0x1c>
    2502:	6023      	str	r3, [r4, #0]
    2504:	bd70      	pop	{r4, r5, r6, pc}
    2506:	46c0      	nop			; (mov r8, r8)
    2508:	20000584 	.word	0x20000584

0000250c <__malloc_lock>:
    250c:	b510      	push	{r4, lr}
    250e:	4802      	ldr	r0, [pc, #8]	; (2518 <__malloc_lock+0xc>)
    2510:	f000 f80c 	bl	252c <__retarget_lock_acquire_recursive>
    2514:	bd10      	pop	{r4, pc}
    2516:	46c0      	nop			; (mov r8, r8)
    2518:	2000058c 	.word	0x2000058c

0000251c <__malloc_unlock>:
    251c:	b510      	push	{r4, lr}
    251e:	4802      	ldr	r0, [pc, #8]	; (2528 <__malloc_unlock+0xc>)
    2520:	f000 f805 	bl	252e <__retarget_lock_release_recursive>
    2524:	bd10      	pop	{r4, pc}
    2526:	46c0      	nop			; (mov r8, r8)
    2528:	2000058c 	.word	0x2000058c

0000252c <__retarget_lock_acquire_recursive>:
    252c:	4770      	bx	lr

0000252e <__retarget_lock_release_recursive>:
    252e:	4770      	bx	lr

00002530 <calloc>:
    2530:	b510      	push	{r4, lr}
    2532:	4b03      	ldr	r3, [pc, #12]	; (2540 <calloc+0x10>)
    2534:	000a      	movs	r2, r1
    2536:	0001      	movs	r1, r0
    2538:	6818      	ldr	r0, [r3, #0]
    253a:	f000 f80c 	bl	2556 <_calloc_r>
    253e:	bd10      	pop	{r4, pc}
    2540:	20000080 	.word	0x20000080

00002544 <memcpy>:
    2544:	2300      	movs	r3, #0
    2546:	b510      	push	{r4, lr}
    2548:	429a      	cmp	r2, r3
    254a:	d100      	bne.n	254e <memcpy+0xa>
    254c:	bd10      	pop	{r4, pc}
    254e:	5ccc      	ldrb	r4, [r1, r3]
    2550:	54c4      	strb	r4, [r0, r3]
    2552:	3301      	adds	r3, #1
    2554:	e7f8      	b.n	2548 <memcpy+0x4>

00002556 <_calloc_r>:
    2556:	434a      	muls	r2, r1
    2558:	b570      	push	{r4, r5, r6, lr}
    255a:	0011      	movs	r1, r2
    255c:	0015      	movs	r5, r2
    255e:	f7ff ff65 	bl	242c <_malloc_r>
    2562:	1e04      	subs	r4, r0, #0
    2564:	d003      	beq.n	256e <_calloc_r+0x18>
    2566:	002a      	movs	r2, r5
    2568:	2100      	movs	r1, #0
    256a:	f7ff fe13 	bl	2194 <memset>
    256e:	0020      	movs	r0, r4
    2570:	bd70      	pop	{r4, r5, r6, pc}
    2572:	Address 0x00002572 is out of bounds.


00002574 <realloc>:
    2574:	b510      	push	{r4, lr}
    2576:	4b03      	ldr	r3, [pc, #12]	; (2584 <realloc+0x10>)
    2578:	000a      	movs	r2, r1
    257a:	0001      	movs	r1, r0
    257c:	6818      	ldr	r0, [r3, #0]
    257e:	f000 f8eb 	bl	2758 <_realloc_r>
    2582:	bd10      	pop	{r4, pc}
    2584:	20000080 	.word	0x20000080

00002588 <sniprintf>:
    2588:	b40c      	push	{r2, r3}
    258a:	b530      	push	{r4, r5, lr}
    258c:	4b17      	ldr	r3, [pc, #92]	; (25ec <sniprintf+0x64>)
    258e:	000c      	movs	r4, r1
    2590:	681d      	ldr	r5, [r3, #0]
    2592:	b09d      	sub	sp, #116	; 0x74
    2594:	2900      	cmp	r1, #0
    2596:	da08      	bge.n	25aa <sniprintf+0x22>
    2598:	238b      	movs	r3, #139	; 0x8b
    259a:	2001      	movs	r0, #1
    259c:	602b      	str	r3, [r5, #0]
    259e:	4240      	negs	r0, r0
    25a0:	b01d      	add	sp, #116	; 0x74
    25a2:	bc30      	pop	{r4, r5}
    25a4:	bc08      	pop	{r3}
    25a6:	b002      	add	sp, #8
    25a8:	4718      	bx	r3
    25aa:	2382      	movs	r3, #130	; 0x82
    25ac:	466a      	mov	r2, sp
    25ae:	009b      	lsls	r3, r3, #2
    25b0:	8293      	strh	r3, [r2, #20]
    25b2:	2300      	movs	r3, #0
    25b4:	9002      	str	r0, [sp, #8]
    25b6:	9006      	str	r0, [sp, #24]
    25b8:	4299      	cmp	r1, r3
    25ba:	d000      	beq.n	25be <sniprintf+0x36>
    25bc:	1e4b      	subs	r3, r1, #1
    25be:	9304      	str	r3, [sp, #16]
    25c0:	9307      	str	r3, [sp, #28]
    25c2:	2301      	movs	r3, #1
    25c4:	466a      	mov	r2, sp
    25c6:	425b      	negs	r3, r3
    25c8:	82d3      	strh	r3, [r2, #22]
    25ca:	0028      	movs	r0, r5
    25cc:	ab21      	add	r3, sp, #132	; 0x84
    25ce:	9a20      	ldr	r2, [sp, #128]	; 0x80
    25d0:	a902      	add	r1, sp, #8
    25d2:	9301      	str	r3, [sp, #4]
    25d4:	f000 f948 	bl	2868 <_svfiprintf_r>
    25d8:	1c43      	adds	r3, r0, #1
    25da:	da01      	bge.n	25e0 <sniprintf+0x58>
    25dc:	238b      	movs	r3, #139	; 0x8b
    25de:	602b      	str	r3, [r5, #0]
    25e0:	2c00      	cmp	r4, #0
    25e2:	d0dd      	beq.n	25a0 <sniprintf+0x18>
    25e4:	2300      	movs	r3, #0
    25e6:	9a02      	ldr	r2, [sp, #8]
    25e8:	7013      	strb	r3, [r2, #0]
    25ea:	e7d9      	b.n	25a0 <sniprintf+0x18>
    25ec:	20000080 	.word	0x20000080

000025f0 <strcasecmp>:
    25f0:	b5f0      	push	{r4, r5, r6, r7, lr}
    25f2:	0005      	movs	r5, r0
    25f4:	2400      	movs	r4, #0
    25f6:	2703      	movs	r7, #3
    25f8:	4e09      	ldr	r6, [pc, #36]	; (2620 <strcasecmp+0x30>)
    25fa:	5d2a      	ldrb	r2, [r5, r4]
    25fc:	5cb3      	ldrb	r3, [r6, r2]
    25fe:	403b      	ands	r3, r7
    2600:	2b01      	cmp	r3, #1
    2602:	d100      	bne.n	2606 <strcasecmp+0x16>
    2604:	3220      	adds	r2, #32
    2606:	5d0b      	ldrb	r3, [r1, r4]
    2608:	5cf0      	ldrb	r0, [r6, r3]
    260a:	4038      	ands	r0, r7
    260c:	2801      	cmp	r0, #1
    260e:	d100      	bne.n	2612 <strcasecmp+0x22>
    2610:	3320      	adds	r3, #32
    2612:	1ad0      	subs	r0, r2, r3
    2614:	429a      	cmp	r2, r3
    2616:	d102      	bne.n	261e <strcasecmp+0x2e>
    2618:	3401      	adds	r4, #1
    261a:	2b00      	cmp	r3, #0
    261c:	d1ed      	bne.n	25fa <strcasecmp+0xa>
    261e:	bdf0      	pop	{r4, r5, r6, r7, pc}
    2620:	000034ca 	.word	0x000034ca

00002624 <strchr>:
    2624:	b2c9      	uxtb	r1, r1
    2626:	7803      	ldrb	r3, [r0, #0]
    2628:	2b00      	cmp	r3, #0
    262a:	d004      	beq.n	2636 <strchr+0x12>
    262c:	428b      	cmp	r3, r1
    262e:	d100      	bne.n	2632 <strchr+0xe>
    2630:	4770      	bx	lr
    2632:	3001      	adds	r0, #1
    2634:	e7f7      	b.n	2626 <strchr+0x2>
    2636:	424b      	negs	r3, r1
    2638:	4159      	adcs	r1, r3
    263a:	4249      	negs	r1, r1
    263c:	4008      	ands	r0, r1
    263e:	e7f7      	b.n	2630 <strchr+0xc>

00002640 <strcmp>:
    2640:	7802      	ldrb	r2, [r0, #0]
    2642:	780b      	ldrb	r3, [r1, #0]
    2644:	2a00      	cmp	r2, #0
    2646:	d003      	beq.n	2650 <strcmp+0x10>
    2648:	3001      	adds	r0, #1
    264a:	3101      	adds	r1, #1
    264c:	429a      	cmp	r2, r3
    264e:	d0f7      	beq.n	2640 <strcmp>
    2650:	1ad0      	subs	r0, r2, r3
    2652:	4770      	bx	lr

00002654 <strcpy>:
    2654:	0003      	movs	r3, r0
    2656:	780a      	ldrb	r2, [r1, #0]
    2658:	3101      	adds	r1, #1
    265a:	701a      	strb	r2, [r3, #0]
    265c:	3301      	adds	r3, #1
    265e:	2a00      	cmp	r2, #0
    2660:	d1f9      	bne.n	2656 <strcpy+0x2>
    2662:	4770      	bx	lr

00002664 <strlen>:
    2664:	2300      	movs	r3, #0
    2666:	5cc2      	ldrb	r2, [r0, r3]
    2668:	3301      	adds	r3, #1
    266a:	2a00      	cmp	r2, #0
    266c:	d1fb      	bne.n	2666 <strlen+0x2>
    266e:	1e58      	subs	r0, r3, #1
    2670:	4770      	bx	lr

00002672 <strncmp>:
    2672:	b530      	push	{r4, r5, lr}
    2674:	0005      	movs	r5, r0
    2676:	1e10      	subs	r0, r2, #0
    2678:	d00b      	beq.n	2692 <strncmp+0x20>
    267a:	2400      	movs	r4, #0
    267c:	3a01      	subs	r2, #1
    267e:	5d2b      	ldrb	r3, [r5, r4]
    2680:	5d08      	ldrb	r0, [r1, r4]
    2682:	4283      	cmp	r3, r0
    2684:	d104      	bne.n	2690 <strncmp+0x1e>
    2686:	4294      	cmp	r4, r2
    2688:	d002      	beq.n	2690 <strncmp+0x1e>
    268a:	3401      	adds	r4, #1
    268c:	2b00      	cmp	r3, #0
    268e:	d1f6      	bne.n	267e <strncmp+0xc>
    2690:	1a18      	subs	r0, r3, r0
    2692:	bd30      	pop	{r4, r5, pc}

00002694 <strncpy>:
    2694:	0003      	movs	r3, r0
    2696:	b530      	push	{r4, r5, lr}
    2698:	001d      	movs	r5, r3
    269a:	2a00      	cmp	r2, #0
    269c:	d006      	beq.n	26ac <strncpy+0x18>
    269e:	780c      	ldrb	r4, [r1, #0]
    26a0:	3a01      	subs	r2, #1
    26a2:	3301      	adds	r3, #1
    26a4:	702c      	strb	r4, [r5, #0]
    26a6:	3101      	adds	r1, #1
    26a8:	2c00      	cmp	r4, #0
    26aa:	d1f5      	bne.n	2698 <strncpy+0x4>
    26ac:	2100      	movs	r1, #0
    26ae:	189a      	adds	r2, r3, r2
    26b0:	4293      	cmp	r3, r2
    26b2:	d100      	bne.n	26b6 <strncpy+0x22>
    26b4:	bd30      	pop	{r4, r5, pc}
    26b6:	7019      	strb	r1, [r3, #0]
    26b8:	3301      	adds	r3, #1
    26ba:	e7f9      	b.n	26b0 <strncpy+0x1c>

000026bc <strstr>:
    26bc:	780a      	ldrb	r2, [r1, #0]
    26be:	b530      	push	{r4, r5, lr}
    26c0:	2a00      	cmp	r2, #0
    26c2:	d10c      	bne.n	26de <strstr+0x22>
    26c4:	bd30      	pop	{r4, r5, pc}
    26c6:	429a      	cmp	r2, r3
    26c8:	d108      	bne.n	26dc <strstr+0x20>
    26ca:	2301      	movs	r3, #1
    26cc:	5ccc      	ldrb	r4, [r1, r3]
    26ce:	2c00      	cmp	r4, #0
    26d0:	d0f8      	beq.n	26c4 <strstr+0x8>
    26d2:	5cc5      	ldrb	r5, [r0, r3]
    26d4:	42a5      	cmp	r5, r4
    26d6:	d101      	bne.n	26dc <strstr+0x20>
    26d8:	3301      	adds	r3, #1
    26da:	e7f7      	b.n	26cc <strstr+0x10>
    26dc:	3001      	adds	r0, #1
    26de:	7803      	ldrb	r3, [r0, #0]
    26e0:	2b00      	cmp	r3, #0
    26e2:	d1f0      	bne.n	26c6 <strstr+0xa>
    26e4:	0018      	movs	r0, r3
    26e6:	e7ed      	b.n	26c4 <strstr+0x8>

000026e8 <_vsniprintf_r>:
    26e8:	b530      	push	{r4, r5, lr}
    26ea:	0014      	movs	r4, r2
    26ec:	0005      	movs	r5, r0
    26ee:	001a      	movs	r2, r3
    26f0:	b09b      	sub	sp, #108	; 0x6c
    26f2:	2c00      	cmp	r4, #0
    26f4:	da05      	bge.n	2702 <_vsniprintf_r+0x1a>
    26f6:	238b      	movs	r3, #139	; 0x8b
    26f8:	6003      	str	r3, [r0, #0]
    26fa:	2001      	movs	r0, #1
    26fc:	4240      	negs	r0, r0
    26fe:	b01b      	add	sp, #108	; 0x6c
    2700:	bd30      	pop	{r4, r5, pc}
    2702:	2382      	movs	r3, #130	; 0x82
    2704:	4668      	mov	r0, sp
    2706:	009b      	lsls	r3, r3, #2
    2708:	8183      	strh	r3, [r0, #12]
    270a:	2300      	movs	r3, #0
    270c:	9100      	str	r1, [sp, #0]
    270e:	9104      	str	r1, [sp, #16]
    2710:	429c      	cmp	r4, r3
    2712:	d000      	beq.n	2716 <_vsniprintf_r+0x2e>
    2714:	1e63      	subs	r3, r4, #1
    2716:	9302      	str	r3, [sp, #8]
    2718:	9305      	str	r3, [sp, #20]
    271a:	2301      	movs	r3, #1
    271c:	4669      	mov	r1, sp
    271e:	425b      	negs	r3, r3
    2720:	81cb      	strh	r3, [r1, #14]
    2722:	0028      	movs	r0, r5
    2724:	9b1e      	ldr	r3, [sp, #120]	; 0x78
    2726:	f000 f89f 	bl	2868 <_svfiprintf_r>
    272a:	1c43      	adds	r3, r0, #1
    272c:	da01      	bge.n	2732 <_vsniprintf_r+0x4a>
    272e:	238b      	movs	r3, #139	; 0x8b
    2730:	602b      	str	r3, [r5, #0]
    2732:	2c00      	cmp	r4, #0
    2734:	d0e3      	beq.n	26fe <_vsniprintf_r+0x16>
    2736:	2300      	movs	r3, #0
    2738:	9a00      	ldr	r2, [sp, #0]
    273a:	7013      	strb	r3, [r2, #0]
    273c:	e7df      	b.n	26fe <_vsniprintf_r+0x16>
    273e:	Address 0x0000273e is out of bounds.


00002740 <vsniprintf>:
    2740:	b507      	push	{r0, r1, r2, lr}
    2742:	9300      	str	r3, [sp, #0]
    2744:	0013      	movs	r3, r2
    2746:	000a      	movs	r2, r1
    2748:	0001      	movs	r1, r0
    274a:	4802      	ldr	r0, [pc, #8]	; (2754 <vsniprintf+0x14>)
    274c:	6800      	ldr	r0, [r0, #0]
    274e:	f7ff ffcb 	bl	26e8 <_vsniprintf_r>
    2752:	bd0e      	pop	{r1, r2, r3, pc}
    2754:	20000080 	.word	0x20000080

00002758 <_realloc_r>:
    2758:	b5f8      	push	{r3, r4, r5, r6, r7, lr}
    275a:	0007      	movs	r7, r0
    275c:	000d      	movs	r5, r1
    275e:	0016      	movs	r6, r2
    2760:	2900      	cmp	r1, #0
    2762:	d105      	bne.n	2770 <_realloc_r+0x18>
    2764:	0011      	movs	r1, r2
    2766:	f7ff fe61 	bl	242c <_malloc_r>
    276a:	0004      	movs	r4, r0
    276c:	0020      	movs	r0, r4
    276e:	bdf8      	pop	{r3, r4, r5, r6, r7, pc}
    2770:	2a00      	cmp	r2, #0
    2772:	d103      	bne.n	277c <_realloc_r+0x24>
    2774:	f7ff fe10 	bl	2398 <_free_r>
    2778:	0034      	movs	r4, r6
    277a:	e7f7      	b.n	276c <_realloc_r+0x14>
    277c:	f000 fb14 	bl	2da8 <_malloc_usable_size_r>
    2780:	002c      	movs	r4, r5
    2782:	42b0      	cmp	r0, r6
    2784:	d2f2      	bcs.n	276c <_realloc_r+0x14>
    2786:	0031      	movs	r1, r6
    2788:	0038      	movs	r0, r7
    278a:	f7ff fe4f 	bl	242c <_malloc_r>
    278e:	1e04      	subs	r4, r0, #0
    2790:	d0ec      	beq.n	276c <_realloc_r+0x14>
    2792:	0029      	movs	r1, r5
    2794:	0032      	movs	r2, r6
    2796:	f7ff fed5 	bl	2544 <memcpy>
    279a:	0029      	movs	r1, r5
    279c:	0038      	movs	r0, r7
    279e:	f7ff fdfb 	bl	2398 <_free_r>
    27a2:	e7e3      	b.n	276c <_realloc_r+0x14>

000027a4 <__ssputs_r>:
    27a4:	b5f0      	push	{r4, r5, r6, r7, lr}
    27a6:	688e      	ldr	r6, [r1, #8]
    27a8:	b085      	sub	sp, #20
    27aa:	0007      	movs	r7, r0
    27ac:	000c      	movs	r4, r1
    27ae:	9203      	str	r2, [sp, #12]
    27b0:	9301      	str	r3, [sp, #4]
    27b2:	429e      	cmp	r6, r3
    27b4:	d83c      	bhi.n	2830 <__ssputs_r+0x8c>
    27b6:	2390      	movs	r3, #144	; 0x90
    27b8:	898a      	ldrh	r2, [r1, #12]
    27ba:	00db      	lsls	r3, r3, #3
    27bc:	421a      	tst	r2, r3
    27be:	d034      	beq.n	282a <__ssputs_r+0x86>
    27c0:	2503      	movs	r5, #3
    27c2:	6909      	ldr	r1, [r1, #16]
    27c4:	6823      	ldr	r3, [r4, #0]
    27c6:	1a5b      	subs	r3, r3, r1
    27c8:	9302      	str	r3, [sp, #8]
    27ca:	6963      	ldr	r3, [r4, #20]
    27cc:	9802      	ldr	r0, [sp, #8]
    27ce:	435d      	muls	r5, r3
    27d0:	0feb      	lsrs	r3, r5, #31
    27d2:	195d      	adds	r5, r3, r5
    27d4:	9b01      	ldr	r3, [sp, #4]
    27d6:	106d      	asrs	r5, r5, #1
    27d8:	3301      	adds	r3, #1
    27da:	181b      	adds	r3, r3, r0
    27dc:	42ab      	cmp	r3, r5
    27de:	d900      	bls.n	27e2 <__ssputs_r+0x3e>
    27e0:	001d      	movs	r5, r3
    27e2:	0553      	lsls	r3, r2, #21
    27e4:	d532      	bpl.n	284c <__ssputs_r+0xa8>
    27e6:	0029      	movs	r1, r5
    27e8:	0038      	movs	r0, r7
    27ea:	f7ff fe1f 	bl	242c <_malloc_r>
    27ee:	1e06      	subs	r6, r0, #0
    27f0:	d109      	bne.n	2806 <__ssputs_r+0x62>
    27f2:	230c      	movs	r3, #12
    27f4:	603b      	str	r3, [r7, #0]
    27f6:	2340      	movs	r3, #64	; 0x40
    27f8:	2001      	movs	r0, #1
    27fa:	89a2      	ldrh	r2, [r4, #12]
    27fc:	4240      	negs	r0, r0
    27fe:	4313      	orrs	r3, r2
    2800:	81a3      	strh	r3, [r4, #12]
    2802:	b005      	add	sp, #20
    2804:	bdf0      	pop	{r4, r5, r6, r7, pc}
    2806:	9a02      	ldr	r2, [sp, #8]
    2808:	6921      	ldr	r1, [r4, #16]
    280a:	f7ff fe9b 	bl	2544 <memcpy>
    280e:	89a3      	ldrh	r3, [r4, #12]
    2810:	4a14      	ldr	r2, [pc, #80]	; (2864 <__ssputs_r+0xc0>)
    2812:	401a      	ands	r2, r3
    2814:	2380      	movs	r3, #128	; 0x80
    2816:	4313      	orrs	r3, r2
    2818:	81a3      	strh	r3, [r4, #12]
    281a:	9b02      	ldr	r3, [sp, #8]
    281c:	6126      	str	r6, [r4, #16]
    281e:	18f6      	adds	r6, r6, r3
    2820:	6026      	str	r6, [r4, #0]
    2822:	6165      	str	r5, [r4, #20]
    2824:	9e01      	ldr	r6, [sp, #4]
    2826:	1aed      	subs	r5, r5, r3
    2828:	60a5      	str	r5, [r4, #8]
    282a:	9b01      	ldr	r3, [sp, #4]
    282c:	429e      	cmp	r6, r3
    282e:	d900      	bls.n	2832 <__ssputs_r+0x8e>
    2830:	9e01      	ldr	r6, [sp, #4]
    2832:	0032      	movs	r2, r6
    2834:	9903      	ldr	r1, [sp, #12]
    2836:	6820      	ldr	r0, [r4, #0]
    2838:	f000 faa3 	bl	2d82 <memmove>
    283c:	68a3      	ldr	r3, [r4, #8]
    283e:	2000      	movs	r0, #0
    2840:	1b9b      	subs	r3, r3, r6
    2842:	60a3      	str	r3, [r4, #8]
    2844:	6823      	ldr	r3, [r4, #0]
    2846:	199e      	adds	r6, r3, r6
    2848:	6026      	str	r6, [r4, #0]
    284a:	e7da      	b.n	2802 <__ssputs_r+0x5e>
    284c:	002a      	movs	r2, r5
    284e:	0038      	movs	r0, r7
    2850:	f7ff ff82 	bl	2758 <_realloc_r>
    2854:	1e06      	subs	r6, r0, #0
    2856:	d1e0      	bne.n	281a <__ssputs_r+0x76>
    2858:	0038      	movs	r0, r7
    285a:	6921      	ldr	r1, [r4, #16]
    285c:	f7ff fd9c 	bl	2398 <_free_r>
    2860:	e7c7      	b.n	27f2 <__ssputs_r+0x4e>
    2862:	46c0      	nop			; (mov r8, r8)
    2864:	fffffb7f 	.word	0xfffffb7f

00002868 <_svfiprintf_r>:
    2868:	b5f0      	push	{r4, r5, r6, r7, lr}
    286a:	b0a1      	sub	sp, #132	; 0x84
    286c:	9003      	str	r0, [sp, #12]
    286e:	001d      	movs	r5, r3
    2870:	898b      	ldrh	r3, [r1, #12]
    2872:	000f      	movs	r7, r1
    2874:	0016      	movs	r6, r2
    2876:	061b      	lsls	r3, r3, #24
    2878:	d511      	bpl.n	289e <_svfiprintf_r+0x36>
    287a:	690b      	ldr	r3, [r1, #16]
    287c:	2b00      	cmp	r3, #0
    287e:	d10e      	bne.n	289e <_svfiprintf_r+0x36>
    2880:	2140      	movs	r1, #64	; 0x40
    2882:	f7ff fdd3 	bl	242c <_malloc_r>
    2886:	6038      	str	r0, [r7, #0]
    2888:	6138      	str	r0, [r7, #16]
    288a:	2800      	cmp	r0, #0
    288c:	d105      	bne.n	289a <_svfiprintf_r+0x32>
    288e:	230c      	movs	r3, #12
    2890:	9a03      	ldr	r2, [sp, #12]
    2892:	3801      	subs	r0, #1
    2894:	6013      	str	r3, [r2, #0]
    2896:	b021      	add	sp, #132	; 0x84
    2898:	bdf0      	pop	{r4, r5, r6, r7, pc}
    289a:	2340      	movs	r3, #64	; 0x40
    289c:	617b      	str	r3, [r7, #20]
    289e:	2300      	movs	r3, #0
    28a0:	ac08      	add	r4, sp, #32
    28a2:	6163      	str	r3, [r4, #20]
    28a4:	3320      	adds	r3, #32
    28a6:	7663      	strb	r3, [r4, #25]
    28a8:	3310      	adds	r3, #16
    28aa:	76a3      	strb	r3, [r4, #26]
    28ac:	9507      	str	r5, [sp, #28]
    28ae:	0035      	movs	r5, r6
    28b0:	782b      	ldrb	r3, [r5, #0]
    28b2:	2b00      	cmp	r3, #0
    28b4:	d001      	beq.n	28ba <_svfiprintf_r+0x52>
    28b6:	2b25      	cmp	r3, #37	; 0x25
    28b8:	d147      	bne.n	294a <_svfiprintf_r+0xe2>
    28ba:	1bab      	subs	r3, r5, r6
    28bc:	9305      	str	r3, [sp, #20]
    28be:	42b5      	cmp	r5, r6
    28c0:	d00c      	beq.n	28dc <_svfiprintf_r+0x74>
    28c2:	0032      	movs	r2, r6
    28c4:	0039      	movs	r1, r7
    28c6:	9803      	ldr	r0, [sp, #12]
    28c8:	f7ff ff6c 	bl	27a4 <__ssputs_r>
    28cc:	1c43      	adds	r3, r0, #1
    28ce:	d100      	bne.n	28d2 <_svfiprintf_r+0x6a>
    28d0:	e0ae      	b.n	2a30 <_svfiprintf_r+0x1c8>
    28d2:	6962      	ldr	r2, [r4, #20]
    28d4:	9b05      	ldr	r3, [sp, #20]
    28d6:	4694      	mov	ip, r2
    28d8:	4463      	add	r3, ip
    28da:	6163      	str	r3, [r4, #20]
    28dc:	782b      	ldrb	r3, [r5, #0]
    28de:	2b00      	cmp	r3, #0
    28e0:	d100      	bne.n	28e4 <_svfiprintf_r+0x7c>
    28e2:	e0a5      	b.n	2a30 <_svfiprintf_r+0x1c8>
    28e4:	2201      	movs	r2, #1
    28e6:	2300      	movs	r3, #0
    28e8:	4252      	negs	r2, r2
    28ea:	6062      	str	r2, [r4, #4]
    28ec:	a904      	add	r1, sp, #16
    28ee:	3254      	adds	r2, #84	; 0x54
    28f0:	1852      	adds	r2, r2, r1
    28f2:	1c6e      	adds	r6, r5, #1
    28f4:	6023      	str	r3, [r4, #0]
    28f6:	60e3      	str	r3, [r4, #12]
    28f8:	60a3      	str	r3, [r4, #8]
    28fa:	7013      	strb	r3, [r2, #0]
    28fc:	65a3      	str	r3, [r4, #88]	; 0x58
    28fe:	2205      	movs	r2, #5
    2900:	7831      	ldrb	r1, [r6, #0]
    2902:	4854      	ldr	r0, [pc, #336]	; (2a54 <_svfiprintf_r+0x1ec>)
    2904:	f000 fa32 	bl	2d6c <memchr>
    2908:	1c75      	adds	r5, r6, #1
    290a:	2800      	cmp	r0, #0
    290c:	d11f      	bne.n	294e <_svfiprintf_r+0xe6>
    290e:	6822      	ldr	r2, [r4, #0]
    2910:	06d3      	lsls	r3, r2, #27
    2912:	d504      	bpl.n	291e <_svfiprintf_r+0xb6>
    2914:	2353      	movs	r3, #83	; 0x53
    2916:	a904      	add	r1, sp, #16
    2918:	185b      	adds	r3, r3, r1
    291a:	2120      	movs	r1, #32
    291c:	7019      	strb	r1, [r3, #0]
    291e:	0713      	lsls	r3, r2, #28
    2920:	d504      	bpl.n	292c <_svfiprintf_r+0xc4>
    2922:	2353      	movs	r3, #83	; 0x53
    2924:	a904      	add	r1, sp, #16
    2926:	185b      	adds	r3, r3, r1
    2928:	212b      	movs	r1, #43	; 0x2b
    292a:	7019      	strb	r1, [r3, #0]
    292c:	7833      	ldrb	r3, [r6, #0]
    292e:	2b2a      	cmp	r3, #42	; 0x2a
    2930:	d016      	beq.n	2960 <_svfiprintf_r+0xf8>
    2932:	0035      	movs	r5, r6
    2934:	2100      	movs	r1, #0
    2936:	200a      	movs	r0, #10
    2938:	68e3      	ldr	r3, [r4, #12]
    293a:	782a      	ldrb	r2, [r5, #0]
    293c:	1c6e      	adds	r6, r5, #1
    293e:	3a30      	subs	r2, #48	; 0x30
    2940:	2a09      	cmp	r2, #9
    2942:	d94e      	bls.n	29e2 <_svfiprintf_r+0x17a>
    2944:	2900      	cmp	r1, #0
    2946:	d111      	bne.n	296c <_svfiprintf_r+0x104>
    2948:	e017      	b.n	297a <_svfiprintf_r+0x112>
    294a:	3501      	adds	r5, #1
    294c:	e7b0      	b.n	28b0 <_svfiprintf_r+0x48>
    294e:	4b41      	ldr	r3, [pc, #260]	; (2a54 <_svfiprintf_r+0x1ec>)
    2950:	6822      	ldr	r2, [r4, #0]
    2952:	1ac0      	subs	r0, r0, r3
    2954:	2301      	movs	r3, #1
    2956:	4083      	lsls	r3, r0
    2958:	4313      	orrs	r3, r2
    295a:	002e      	movs	r6, r5
    295c:	6023      	str	r3, [r4, #0]
    295e:	e7ce      	b.n	28fe <_svfiprintf_r+0x96>
    2960:	9b07      	ldr	r3, [sp, #28]
    2962:	1d19      	adds	r1, r3, #4
    2964:	681b      	ldr	r3, [r3, #0]
    2966:	9107      	str	r1, [sp, #28]
    2968:	2b00      	cmp	r3, #0
    296a:	db01      	blt.n	2970 <_svfiprintf_r+0x108>
    296c:	930b      	str	r3, [sp, #44]	; 0x2c
    296e:	e004      	b.n	297a <_svfiprintf_r+0x112>
    2970:	425b      	negs	r3, r3
    2972:	60e3      	str	r3, [r4, #12]
    2974:	2302      	movs	r3, #2
    2976:	4313      	orrs	r3, r2
    2978:	6023      	str	r3, [r4, #0]
    297a:	782b      	ldrb	r3, [r5, #0]
    297c:	2b2e      	cmp	r3, #46	; 0x2e
    297e:	d10a      	bne.n	2996 <_svfiprintf_r+0x12e>
    2980:	786b      	ldrb	r3, [r5, #1]
    2982:	2b2a      	cmp	r3, #42	; 0x2a
    2984:	d135      	bne.n	29f2 <_svfiprintf_r+0x18a>
    2986:	9b07      	ldr	r3, [sp, #28]
    2988:	3502      	adds	r5, #2
    298a:	1d1a      	adds	r2, r3, #4
    298c:	681b      	ldr	r3, [r3, #0]
    298e:	9207      	str	r2, [sp, #28]
    2990:	2b00      	cmp	r3, #0
    2992:	db2b      	blt.n	29ec <_svfiprintf_r+0x184>
    2994:	9309      	str	r3, [sp, #36]	; 0x24
    2996:	4e30      	ldr	r6, [pc, #192]	; (2a58 <_svfiprintf_r+0x1f0>)
    2998:	2203      	movs	r2, #3
    299a:	0030      	movs	r0, r6
    299c:	7829      	ldrb	r1, [r5, #0]
    299e:	f000 f9e5 	bl	2d6c <memchr>
    29a2:	2800      	cmp	r0, #0
    29a4:	d006      	beq.n	29b4 <_svfiprintf_r+0x14c>
    29a6:	2340      	movs	r3, #64	; 0x40
    29a8:	1b80      	subs	r0, r0, r6
    29aa:	4083      	lsls	r3, r0
    29ac:	6822      	ldr	r2, [r4, #0]
    29ae:	3501      	adds	r5, #1
    29b0:	4313      	orrs	r3, r2
    29b2:	6023      	str	r3, [r4, #0]
    29b4:	7829      	ldrb	r1, [r5, #0]
    29b6:	2206      	movs	r2, #6
    29b8:	4828      	ldr	r0, [pc, #160]	; (2a5c <_svfiprintf_r+0x1f4>)
    29ba:	1c6e      	adds	r6, r5, #1
    29bc:	7621      	strb	r1, [r4, #24]
    29be:	f000 f9d5 	bl	2d6c <memchr>
    29c2:	2800      	cmp	r0, #0
    29c4:	d03c      	beq.n	2a40 <_svfiprintf_r+0x1d8>
    29c6:	4b26      	ldr	r3, [pc, #152]	; (2a60 <_svfiprintf_r+0x1f8>)
    29c8:	2b00      	cmp	r3, #0
    29ca:	d125      	bne.n	2a18 <_svfiprintf_r+0x1b0>
    29cc:	2207      	movs	r2, #7
    29ce:	9b07      	ldr	r3, [sp, #28]
    29d0:	3307      	adds	r3, #7
    29d2:	4393      	bics	r3, r2
    29d4:	3308      	adds	r3, #8
    29d6:	9307      	str	r3, [sp, #28]
    29d8:	6963      	ldr	r3, [r4, #20]
    29da:	9a04      	ldr	r2, [sp, #16]
    29dc:	189b      	adds	r3, r3, r2
    29de:	6163      	str	r3, [r4, #20]
    29e0:	e765      	b.n	28ae <_svfiprintf_r+0x46>
    29e2:	4343      	muls	r3, r0
    29e4:	0035      	movs	r5, r6
    29e6:	2101      	movs	r1, #1
    29e8:	189b      	adds	r3, r3, r2
    29ea:	e7a6      	b.n	293a <_svfiprintf_r+0xd2>
    29ec:	2301      	movs	r3, #1
    29ee:	425b      	negs	r3, r3
    29f0:	e7d0      	b.n	2994 <_svfiprintf_r+0x12c>
    29f2:	2300      	movs	r3, #0
    29f4:	200a      	movs	r0, #10
    29f6:	001a      	movs	r2, r3
    29f8:	3501      	adds	r5, #1
    29fa:	6063      	str	r3, [r4, #4]
    29fc:	7829      	ldrb	r1, [r5, #0]
    29fe:	1c6e      	adds	r6, r5, #1
    2a00:	3930      	subs	r1, #48	; 0x30
    2a02:	2909      	cmp	r1, #9
    2a04:	d903      	bls.n	2a0e <_svfiprintf_r+0x1a6>
    2a06:	2b00      	cmp	r3, #0
    2a08:	d0c5      	beq.n	2996 <_svfiprintf_r+0x12e>
    2a0a:	9209      	str	r2, [sp, #36]	; 0x24
    2a0c:	e7c3      	b.n	2996 <_svfiprintf_r+0x12e>
    2a0e:	4342      	muls	r2, r0
    2a10:	0035      	movs	r5, r6
    2a12:	2301      	movs	r3, #1
    2a14:	1852      	adds	r2, r2, r1
    2a16:	e7f1      	b.n	29fc <_svfiprintf_r+0x194>
    2a18:	ab07      	add	r3, sp, #28
    2a1a:	9300      	str	r3, [sp, #0]
    2a1c:	003a      	movs	r2, r7
    2a1e:	0021      	movs	r1, r4
    2a20:	4b10      	ldr	r3, [pc, #64]	; (2a64 <_svfiprintf_r+0x1fc>)
    2a22:	9803      	ldr	r0, [sp, #12]
    2a24:	e000      	b.n	2a28 <_svfiprintf_r+0x1c0>
    2a26:	bf00      	nop
    2a28:	9004      	str	r0, [sp, #16]
    2a2a:	9b04      	ldr	r3, [sp, #16]
    2a2c:	3301      	adds	r3, #1
    2a2e:	d1d3      	bne.n	29d8 <_svfiprintf_r+0x170>
    2a30:	89bb      	ldrh	r3, [r7, #12]
    2a32:	980d      	ldr	r0, [sp, #52]	; 0x34
    2a34:	065b      	lsls	r3, r3, #25
    2a36:	d400      	bmi.n	2a3a <_svfiprintf_r+0x1d2>
    2a38:	e72d      	b.n	2896 <_svfiprintf_r+0x2e>
    2a3a:	2001      	movs	r0, #1
    2a3c:	4240      	negs	r0, r0
    2a3e:	e72a      	b.n	2896 <_svfiprintf_r+0x2e>
    2a40:	ab07      	add	r3, sp, #28
    2a42:	9300      	str	r3, [sp, #0]
    2a44:	003a      	movs	r2, r7
    2a46:	0021      	movs	r1, r4
    2a48:	4b06      	ldr	r3, [pc, #24]	; (2a64 <_svfiprintf_r+0x1fc>)
    2a4a:	9803      	ldr	r0, [sp, #12]
    2a4c:	f000 f87c 	bl	2b48 <_printf_i>
    2a50:	e7ea      	b.n	2a28 <_svfiprintf_r+0x1c0>
    2a52:	46c0      	nop			; (mov r8, r8)
    2a54:	000035ca 	.word	0x000035ca
    2a58:	000035d0 	.word	0x000035d0
    2a5c:	000035d4 	.word	0x000035d4
    2a60:	00000000 	.word	0x00000000
    2a64:	000027a5 	.word	0x000027a5

00002a68 <_printf_common>:
    2a68:	b5f7      	push	{r0, r1, r2, r4, r5, r6, r7, lr}
    2a6a:	0015      	movs	r5, r2
    2a6c:	9301      	str	r3, [sp, #4]
    2a6e:	688a      	ldr	r2, [r1, #8]
    2a70:	690b      	ldr	r3, [r1, #16]
    2a72:	000c      	movs	r4, r1
    2a74:	9000      	str	r0, [sp, #0]
    2a76:	4293      	cmp	r3, r2
    2a78:	da00      	bge.n	2a7c <_printf_common+0x14>
    2a7a:	0013      	movs	r3, r2
    2a7c:	0022      	movs	r2, r4
    2a7e:	602b      	str	r3, [r5, #0]
    2a80:	3243      	adds	r2, #67	; 0x43
    2a82:	7812      	ldrb	r2, [r2, #0]
    2a84:	2a00      	cmp	r2, #0
    2a86:	d001      	beq.n	2a8c <_printf_common+0x24>
    2a88:	3301      	adds	r3, #1
    2a8a:	602b      	str	r3, [r5, #0]
    2a8c:	6823      	ldr	r3, [r4, #0]
    2a8e:	069b      	lsls	r3, r3, #26
    2a90:	d502      	bpl.n	2a98 <_printf_common+0x30>
    2a92:	682b      	ldr	r3, [r5, #0]
    2a94:	3302      	adds	r3, #2
    2a96:	602b      	str	r3, [r5, #0]
    2a98:	6822      	ldr	r2, [r4, #0]
    2a9a:	2306      	movs	r3, #6
    2a9c:	0017      	movs	r7, r2
    2a9e:	401f      	ands	r7, r3
    2aa0:	421a      	tst	r2, r3
    2aa2:	d027      	beq.n	2af4 <_printf_common+0x8c>
    2aa4:	0023      	movs	r3, r4
    2aa6:	3343      	adds	r3, #67	; 0x43
    2aa8:	781b      	ldrb	r3, [r3, #0]
    2aaa:	1e5a      	subs	r2, r3, #1
    2aac:	4193      	sbcs	r3, r2
    2aae:	6822      	ldr	r2, [r4, #0]
    2ab0:	0692      	lsls	r2, r2, #26
    2ab2:	d430      	bmi.n	2b16 <_printf_common+0xae>
    2ab4:	0022      	movs	r2, r4
    2ab6:	9901      	ldr	r1, [sp, #4]
    2ab8:	9800      	ldr	r0, [sp, #0]
    2aba:	9e08      	ldr	r6, [sp, #32]
    2abc:	3243      	adds	r2, #67	; 0x43
    2abe:	47b0      	blx	r6
    2ac0:	1c43      	adds	r3, r0, #1
    2ac2:	d025      	beq.n	2b10 <_printf_common+0xa8>
    2ac4:	2306      	movs	r3, #6
    2ac6:	6820      	ldr	r0, [r4, #0]
    2ac8:	682a      	ldr	r2, [r5, #0]
    2aca:	68e1      	ldr	r1, [r4, #12]
    2acc:	2500      	movs	r5, #0
    2ace:	4003      	ands	r3, r0
    2ad0:	2b04      	cmp	r3, #4
    2ad2:	d103      	bne.n	2adc <_printf_common+0x74>
    2ad4:	1a8d      	subs	r5, r1, r2
    2ad6:	43eb      	mvns	r3, r5
    2ad8:	17db      	asrs	r3, r3, #31
    2ada:	401d      	ands	r5, r3
    2adc:	68a3      	ldr	r3, [r4, #8]
    2ade:	6922      	ldr	r2, [r4, #16]
    2ae0:	4293      	cmp	r3, r2
    2ae2:	dd01      	ble.n	2ae8 <_printf_common+0x80>
    2ae4:	1a9b      	subs	r3, r3, r2
    2ae6:	18ed      	adds	r5, r5, r3
    2ae8:	2700      	movs	r7, #0
    2aea:	42bd      	cmp	r5, r7
    2aec:	d120      	bne.n	2b30 <_printf_common+0xc8>
    2aee:	2000      	movs	r0, #0
    2af0:	e010      	b.n	2b14 <_printf_common+0xac>
    2af2:	3701      	adds	r7, #1
    2af4:	68e3      	ldr	r3, [r4, #12]
    2af6:	682a      	ldr	r2, [r5, #0]
    2af8:	1a9b      	subs	r3, r3, r2
    2afa:	42bb      	cmp	r3, r7
    2afc:	ddd2      	ble.n	2aa4 <_printf_common+0x3c>
    2afe:	0022      	movs	r2, r4
    2b00:	2301      	movs	r3, #1
    2b02:	9901      	ldr	r1, [sp, #4]
    2b04:	9800      	ldr	r0, [sp, #0]
    2b06:	9e08      	ldr	r6, [sp, #32]
    2b08:	3219      	adds	r2, #25
    2b0a:	47b0      	blx	r6
    2b0c:	1c43      	adds	r3, r0, #1
    2b0e:	d1f0      	bne.n	2af2 <_printf_common+0x8a>
    2b10:	2001      	movs	r0, #1
    2b12:	4240      	negs	r0, r0
    2b14:	bdfe      	pop	{r1, r2, r3, r4, r5, r6, r7, pc}
    2b16:	2030      	movs	r0, #48	; 0x30
    2b18:	18e1      	adds	r1, r4, r3
    2b1a:	3143      	adds	r1, #67	; 0x43
    2b1c:	7008      	strb	r0, [r1, #0]
    2b1e:	0021      	movs	r1, r4
    2b20:	1c5a      	adds	r2, r3, #1
    2b22:	3145      	adds	r1, #69	; 0x45
    2b24:	7809      	ldrb	r1, [r1, #0]
    2b26:	18a2      	adds	r2, r4, r2
    2b28:	3243      	adds	r2, #67	; 0x43
    2b2a:	3302      	adds	r3, #2
    2b2c:	7011      	strb	r1, [r2, #0]
    2b2e:	e7c1      	b.n	2ab4 <_printf_common+0x4c>
    2b30:	0022      	movs	r2, r4
    2b32:	2301      	movs	r3, #1
    2b34:	9901      	ldr	r1, [sp, #4]
    2b36:	9800      	ldr	r0, [sp, #0]
    2b38:	9e08      	ldr	r6, [sp, #32]
    2b3a:	321a      	adds	r2, #26
    2b3c:	47b0      	blx	r6
    2b3e:	1c43      	adds	r3, r0, #1
    2b40:	d0e6      	beq.n	2b10 <_printf_common+0xa8>
    2b42:	3701      	adds	r7, #1
    2b44:	e7d1      	b.n	2aea <_printf_common+0x82>
    2b46:	Address 0x00002b46 is out of bounds.


00002b48 <_printf_i>:
    2b48:	b5f0      	push	{r4, r5, r6, r7, lr}
    2b4a:	b08b      	sub	sp, #44	; 0x2c
    2b4c:	9206      	str	r2, [sp, #24]
    2b4e:	000a      	movs	r2, r1
    2b50:	3243      	adds	r2, #67	; 0x43
    2b52:	9307      	str	r3, [sp, #28]
    2b54:	9005      	str	r0, [sp, #20]
    2b56:	9204      	str	r2, [sp, #16]
    2b58:	7e0a      	ldrb	r2, [r1, #24]
    2b5a:	000c      	movs	r4, r1
    2b5c:	9b10      	ldr	r3, [sp, #64]	; 0x40
    2b5e:	2a78      	cmp	r2, #120	; 0x78
    2b60:	d806      	bhi.n	2b70 <_printf_i+0x28>
    2b62:	2a62      	cmp	r2, #98	; 0x62
    2b64:	d808      	bhi.n	2b78 <_printf_i+0x30>
    2b66:	2a00      	cmp	r2, #0
    2b68:	d100      	bne.n	2b6c <_printf_i+0x24>
    2b6a:	e0c0      	b.n	2cee <_printf_i+0x1a6>
    2b6c:	2a58      	cmp	r2, #88	; 0x58
    2b6e:	d052      	beq.n	2c16 <_printf_i+0xce>
    2b70:	0026      	movs	r6, r4
    2b72:	3642      	adds	r6, #66	; 0x42
    2b74:	7032      	strb	r2, [r6, #0]
    2b76:	e022      	b.n	2bbe <_printf_i+0x76>
    2b78:	0010      	movs	r0, r2
    2b7a:	3863      	subs	r0, #99	; 0x63
    2b7c:	2815      	cmp	r0, #21
    2b7e:	d8f7      	bhi.n	2b70 <_printf_i+0x28>
    2b80:	f000 f9ce 	bl	2f20 <__gnu_thumb1_case_shi>
    2b84:	001f0016 	.word	0x001f0016
    2b88:	fff6fff6 	.word	0xfff6fff6
    2b8c:	fff6fff6 	.word	0xfff6fff6
    2b90:	fff6001f 	.word	0xfff6001f
    2b94:	fff6fff6 	.word	0xfff6fff6
    2b98:	00a8fff6 	.word	0x00a8fff6
    2b9c:	009a0036 	.word	0x009a0036
    2ba0:	fff6fff6 	.word	0xfff6fff6
    2ba4:	fff600b9 	.word	0xfff600b9
    2ba8:	fff60036 	.word	0xfff60036
    2bac:	009efff6 	.word	0x009efff6
    2bb0:	0026      	movs	r6, r4
    2bb2:	681a      	ldr	r2, [r3, #0]
    2bb4:	3642      	adds	r6, #66	; 0x42
    2bb6:	1d11      	adds	r1, r2, #4
    2bb8:	6019      	str	r1, [r3, #0]
    2bba:	6813      	ldr	r3, [r2, #0]
    2bbc:	7033      	strb	r3, [r6, #0]
    2bbe:	2301      	movs	r3, #1
    2bc0:	e0a7      	b.n	2d12 <_printf_i+0x1ca>
    2bc2:	6808      	ldr	r0, [r1, #0]
    2bc4:	6819      	ldr	r1, [r3, #0]
    2bc6:	1d0a      	adds	r2, r1, #4
    2bc8:	0605      	lsls	r5, r0, #24
    2bca:	d50b      	bpl.n	2be4 <_printf_i+0x9c>
    2bcc:	680d      	ldr	r5, [r1, #0]
    2bce:	601a      	str	r2, [r3, #0]
    2bd0:	2d00      	cmp	r5, #0
    2bd2:	da03      	bge.n	2bdc <_printf_i+0x94>
    2bd4:	232d      	movs	r3, #45	; 0x2d
    2bd6:	9a04      	ldr	r2, [sp, #16]
    2bd8:	426d      	negs	r5, r5
    2bda:	7013      	strb	r3, [r2, #0]
    2bdc:	4b61      	ldr	r3, [pc, #388]	; (2d64 <_printf_i+0x21c>)
    2bde:	270a      	movs	r7, #10
    2be0:	9303      	str	r3, [sp, #12]
    2be2:	e032      	b.n	2c4a <_printf_i+0x102>
    2be4:	680d      	ldr	r5, [r1, #0]
    2be6:	601a      	str	r2, [r3, #0]
    2be8:	0641      	lsls	r1, r0, #25
    2bea:	d5f1      	bpl.n	2bd0 <_printf_i+0x88>
    2bec:	b22d      	sxth	r5, r5
    2bee:	e7ef      	b.n	2bd0 <_printf_i+0x88>
    2bf0:	680d      	ldr	r5, [r1, #0]
    2bf2:	6819      	ldr	r1, [r3, #0]
    2bf4:	1d08      	adds	r0, r1, #4
    2bf6:	6018      	str	r0, [r3, #0]
    2bf8:	062e      	lsls	r6, r5, #24
    2bfa:	d501      	bpl.n	2c00 <_printf_i+0xb8>
    2bfc:	680d      	ldr	r5, [r1, #0]
    2bfe:	e003      	b.n	2c08 <_printf_i+0xc0>
    2c00:	066d      	lsls	r5, r5, #25
    2c02:	d5fb      	bpl.n	2bfc <_printf_i+0xb4>
    2c04:	680d      	ldr	r5, [r1, #0]
    2c06:	b2ad      	uxth	r5, r5
    2c08:	4b56      	ldr	r3, [pc, #344]	; (2d64 <_printf_i+0x21c>)
    2c0a:	270a      	movs	r7, #10
    2c0c:	9303      	str	r3, [sp, #12]
    2c0e:	2a6f      	cmp	r2, #111	; 0x6f
    2c10:	d117      	bne.n	2c42 <_printf_i+0xfa>
    2c12:	2708      	movs	r7, #8
    2c14:	e015      	b.n	2c42 <_printf_i+0xfa>
    2c16:	3145      	adds	r1, #69	; 0x45
    2c18:	700a      	strb	r2, [r1, #0]
    2c1a:	4a52      	ldr	r2, [pc, #328]	; (2d64 <_printf_i+0x21c>)
    2c1c:	9203      	str	r2, [sp, #12]
    2c1e:	681a      	ldr	r2, [r3, #0]
    2c20:	6821      	ldr	r1, [r4, #0]
    2c22:	ca20      	ldmia	r2!, {r5}
    2c24:	601a      	str	r2, [r3, #0]
    2c26:	0608      	lsls	r0, r1, #24
    2c28:	d550      	bpl.n	2ccc <_printf_i+0x184>
    2c2a:	07cb      	lsls	r3, r1, #31
    2c2c:	d502      	bpl.n	2c34 <_printf_i+0xec>
    2c2e:	2320      	movs	r3, #32
    2c30:	4319      	orrs	r1, r3
    2c32:	6021      	str	r1, [r4, #0]
    2c34:	2710      	movs	r7, #16
    2c36:	2d00      	cmp	r5, #0
    2c38:	d103      	bne.n	2c42 <_printf_i+0xfa>
    2c3a:	2320      	movs	r3, #32
    2c3c:	6822      	ldr	r2, [r4, #0]
    2c3e:	439a      	bics	r2, r3
    2c40:	6022      	str	r2, [r4, #0]
    2c42:	0023      	movs	r3, r4
    2c44:	2200      	movs	r2, #0
    2c46:	3343      	adds	r3, #67	; 0x43
    2c48:	701a      	strb	r2, [r3, #0]
    2c4a:	6863      	ldr	r3, [r4, #4]
    2c4c:	60a3      	str	r3, [r4, #8]
    2c4e:	2b00      	cmp	r3, #0
    2c50:	db03      	blt.n	2c5a <_printf_i+0x112>
    2c52:	2204      	movs	r2, #4
    2c54:	6821      	ldr	r1, [r4, #0]
    2c56:	4391      	bics	r1, r2
    2c58:	6021      	str	r1, [r4, #0]
    2c5a:	2d00      	cmp	r5, #0
    2c5c:	d102      	bne.n	2c64 <_printf_i+0x11c>
    2c5e:	9e04      	ldr	r6, [sp, #16]
    2c60:	2b00      	cmp	r3, #0
    2c62:	d00c      	beq.n	2c7e <_printf_i+0x136>
    2c64:	9e04      	ldr	r6, [sp, #16]
    2c66:	0028      	movs	r0, r5
    2c68:	0039      	movs	r1, r7
    2c6a:	f000 f92b 	bl	2ec4 <__aeabi_uidivmod>
    2c6e:	9b03      	ldr	r3, [sp, #12]
    2c70:	3e01      	subs	r6, #1
    2c72:	5c5b      	ldrb	r3, [r3, r1]
    2c74:	7033      	strb	r3, [r6, #0]
    2c76:	002b      	movs	r3, r5
    2c78:	0005      	movs	r5, r0
    2c7a:	429f      	cmp	r7, r3
    2c7c:	d9f3      	bls.n	2c66 <_printf_i+0x11e>
    2c7e:	2f08      	cmp	r7, #8
    2c80:	d109      	bne.n	2c96 <_printf_i+0x14e>
    2c82:	6823      	ldr	r3, [r4, #0]
    2c84:	07db      	lsls	r3, r3, #31
    2c86:	d506      	bpl.n	2c96 <_printf_i+0x14e>
    2c88:	6863      	ldr	r3, [r4, #4]
    2c8a:	6922      	ldr	r2, [r4, #16]
    2c8c:	4293      	cmp	r3, r2
    2c8e:	dc02      	bgt.n	2c96 <_printf_i+0x14e>
    2c90:	2330      	movs	r3, #48	; 0x30
    2c92:	3e01      	subs	r6, #1
    2c94:	7033      	strb	r3, [r6, #0]
    2c96:	9b04      	ldr	r3, [sp, #16]
    2c98:	1b9b      	subs	r3, r3, r6
    2c9a:	6123      	str	r3, [r4, #16]
    2c9c:	9b07      	ldr	r3, [sp, #28]
    2c9e:	0021      	movs	r1, r4
    2ca0:	9300      	str	r3, [sp, #0]
    2ca2:	9805      	ldr	r0, [sp, #20]
    2ca4:	9b06      	ldr	r3, [sp, #24]
    2ca6:	aa09      	add	r2, sp, #36	; 0x24
    2ca8:	f7ff fede 	bl	2a68 <_printf_common>
    2cac:	1c43      	adds	r3, r0, #1
    2cae:	d135      	bne.n	2d1c <_printf_i+0x1d4>
    2cb0:	2001      	movs	r0, #1
    2cb2:	4240      	negs	r0, r0
    2cb4:	b00b      	add	sp, #44	; 0x2c
    2cb6:	bdf0      	pop	{r4, r5, r6, r7, pc}
    2cb8:	2220      	movs	r2, #32
    2cba:	6809      	ldr	r1, [r1, #0]
    2cbc:	430a      	orrs	r2, r1
    2cbe:	6022      	str	r2, [r4, #0]
    2cc0:	0022      	movs	r2, r4
    2cc2:	2178      	movs	r1, #120	; 0x78
    2cc4:	3245      	adds	r2, #69	; 0x45
    2cc6:	7011      	strb	r1, [r2, #0]
    2cc8:	4a27      	ldr	r2, [pc, #156]	; (2d68 <_printf_i+0x220>)
    2cca:	e7a7      	b.n	2c1c <_printf_i+0xd4>
    2ccc:	0648      	lsls	r0, r1, #25
    2cce:	d5ac      	bpl.n	2c2a <_printf_i+0xe2>
    2cd0:	b2ad      	uxth	r5, r5
    2cd2:	e7aa      	b.n	2c2a <_printf_i+0xe2>
    2cd4:	681a      	ldr	r2, [r3, #0]
    2cd6:	680d      	ldr	r5, [r1, #0]
    2cd8:	1d10      	adds	r0, r2, #4
    2cda:	6949      	ldr	r1, [r1, #20]
    2cdc:	6018      	str	r0, [r3, #0]
    2cde:	6813      	ldr	r3, [r2, #0]
    2ce0:	062e      	lsls	r6, r5, #24
    2ce2:	d501      	bpl.n	2ce8 <_printf_i+0x1a0>
    2ce4:	6019      	str	r1, [r3, #0]
    2ce6:	e002      	b.n	2cee <_printf_i+0x1a6>
    2ce8:	066d      	lsls	r5, r5, #25
    2cea:	d5fb      	bpl.n	2ce4 <_printf_i+0x19c>
    2cec:	8019      	strh	r1, [r3, #0]
    2cee:	2300      	movs	r3, #0
    2cf0:	9e04      	ldr	r6, [sp, #16]
    2cf2:	6123      	str	r3, [r4, #16]
    2cf4:	e7d2      	b.n	2c9c <_printf_i+0x154>
    2cf6:	681a      	ldr	r2, [r3, #0]
    2cf8:	1d11      	adds	r1, r2, #4
    2cfa:	6019      	str	r1, [r3, #0]
    2cfc:	6816      	ldr	r6, [r2, #0]
    2cfe:	2100      	movs	r1, #0
    2d00:	0030      	movs	r0, r6
    2d02:	6862      	ldr	r2, [r4, #4]
    2d04:	f000 f832 	bl	2d6c <memchr>
    2d08:	2800      	cmp	r0, #0
    2d0a:	d001      	beq.n	2d10 <_printf_i+0x1c8>
    2d0c:	1b80      	subs	r0, r0, r6
    2d0e:	6060      	str	r0, [r4, #4]
    2d10:	6863      	ldr	r3, [r4, #4]
    2d12:	6123      	str	r3, [r4, #16]
    2d14:	2300      	movs	r3, #0
    2d16:	9a04      	ldr	r2, [sp, #16]
    2d18:	7013      	strb	r3, [r2, #0]
    2d1a:	e7bf      	b.n	2c9c <_printf_i+0x154>
    2d1c:	6923      	ldr	r3, [r4, #16]
    2d1e:	0032      	movs	r2, r6
    2d20:	9906      	ldr	r1, [sp, #24]
    2d22:	9805      	ldr	r0, [sp, #20]
    2d24:	9d07      	ldr	r5, [sp, #28]
    2d26:	47a8      	blx	r5
    2d28:	1c43      	adds	r3, r0, #1
    2d2a:	d0c1      	beq.n	2cb0 <_printf_i+0x168>
    2d2c:	6823      	ldr	r3, [r4, #0]
    2d2e:	079b      	lsls	r3, r3, #30
    2d30:	d415      	bmi.n	2d5e <_printf_i+0x216>
    2d32:	9b09      	ldr	r3, [sp, #36]	; 0x24
    2d34:	68e0      	ldr	r0, [r4, #12]
    2d36:	4298      	cmp	r0, r3
    2d38:	dabc      	bge.n	2cb4 <_printf_i+0x16c>
    2d3a:	0018      	movs	r0, r3
    2d3c:	e7ba      	b.n	2cb4 <_printf_i+0x16c>
    2d3e:	0022      	movs	r2, r4
    2d40:	2301      	movs	r3, #1
    2d42:	9906      	ldr	r1, [sp, #24]
    2d44:	9805      	ldr	r0, [sp, #20]
    2d46:	9e07      	ldr	r6, [sp, #28]
    2d48:	3219      	adds	r2, #25
    2d4a:	47b0      	blx	r6
    2d4c:	1c43      	adds	r3, r0, #1
    2d4e:	d0af      	beq.n	2cb0 <_printf_i+0x168>
    2d50:	3501      	adds	r5, #1
    2d52:	68e3      	ldr	r3, [r4, #12]
    2d54:	9a09      	ldr	r2, [sp, #36]	; 0x24
    2d56:	1a9b      	subs	r3, r3, r2
    2d58:	42ab      	cmp	r3, r5
    2d5a:	dcf0      	bgt.n	2d3e <_printf_i+0x1f6>
    2d5c:	e7e9      	b.n	2d32 <_printf_i+0x1ea>
    2d5e:	2500      	movs	r5, #0
    2d60:	e7f7      	b.n	2d52 <_printf_i+0x20a>
    2d62:	46c0      	nop			; (mov r8, r8)
    2d64:	000035db 	.word	0x000035db
    2d68:	000035ec 	.word	0x000035ec

00002d6c <memchr>:
    2d6c:	b2c9      	uxtb	r1, r1
    2d6e:	1882      	adds	r2, r0, r2
    2d70:	4290      	cmp	r0, r2
    2d72:	d101      	bne.n	2d78 <memchr+0xc>
    2d74:	2000      	movs	r0, #0
    2d76:	4770      	bx	lr
    2d78:	7803      	ldrb	r3, [r0, #0]
    2d7a:	428b      	cmp	r3, r1
    2d7c:	d0fb      	beq.n	2d76 <memchr+0xa>
    2d7e:	3001      	adds	r0, #1
    2d80:	e7f6      	b.n	2d70 <memchr+0x4>

00002d82 <memmove>:
    2d82:	b510      	push	{r4, lr}
    2d84:	4288      	cmp	r0, r1
    2d86:	d902      	bls.n	2d8e <memmove+0xc>
    2d88:	188b      	adds	r3, r1, r2
    2d8a:	4298      	cmp	r0, r3
    2d8c:	d303      	bcc.n	2d96 <memmove+0x14>
    2d8e:	2300      	movs	r3, #0
    2d90:	e007      	b.n	2da2 <memmove+0x20>
    2d92:	5c8b      	ldrb	r3, [r1, r2]
    2d94:	5483      	strb	r3, [r0, r2]
    2d96:	3a01      	subs	r2, #1
    2d98:	d2fb      	bcs.n	2d92 <memmove+0x10>
    2d9a:	bd10      	pop	{r4, pc}
    2d9c:	5ccc      	ldrb	r4, [r1, r3]
    2d9e:	54c4      	strb	r4, [r0, r3]
    2da0:	3301      	adds	r3, #1
    2da2:	429a      	cmp	r2, r3
    2da4:	d1fa      	bne.n	2d9c <memmove+0x1a>
    2da6:	e7f8      	b.n	2d9a <memmove+0x18>

00002da8 <_malloc_usable_size_r>:
    2da8:	1f0b      	subs	r3, r1, #4
    2daa:	681b      	ldr	r3, [r3, #0]
    2dac:	1f18      	subs	r0, r3, #4
    2dae:	2b00      	cmp	r3, #0
    2db0:	da01      	bge.n	2db6 <_malloc_usable_size_r+0xe>
    2db2:	580b      	ldr	r3, [r1, r0]
    2db4:	18c0      	adds	r0, r0, r3
    2db6:	4770      	bx	lr

00002db8 <__udivsi3>:
    2db8:	2200      	movs	r2, #0
    2dba:	0843      	lsrs	r3, r0, #1
    2dbc:	428b      	cmp	r3, r1
    2dbe:	d374      	bcc.n	2eaa <__udivsi3+0xf2>
    2dc0:	0903      	lsrs	r3, r0, #4
    2dc2:	428b      	cmp	r3, r1
    2dc4:	d35f      	bcc.n	2e86 <__udivsi3+0xce>
    2dc6:	0a03      	lsrs	r3, r0, #8
    2dc8:	428b      	cmp	r3, r1
    2dca:	d344      	bcc.n	2e56 <__udivsi3+0x9e>
    2dcc:	0b03      	lsrs	r3, r0, #12
    2dce:	428b      	cmp	r3, r1
    2dd0:	d328      	bcc.n	2e24 <__udivsi3+0x6c>
    2dd2:	0c03      	lsrs	r3, r0, #16
    2dd4:	428b      	cmp	r3, r1
    2dd6:	d30d      	bcc.n	2df4 <__udivsi3+0x3c>
    2dd8:	22ff      	movs	r2, #255	; 0xff
    2dda:	0209      	lsls	r1, r1, #8
    2ddc:	ba12      	rev	r2, r2
    2dde:	0c03      	lsrs	r3, r0, #16
    2de0:	428b      	cmp	r3, r1
    2de2:	d302      	bcc.n	2dea <__udivsi3+0x32>
    2de4:	1212      	asrs	r2, r2, #8
    2de6:	0209      	lsls	r1, r1, #8
    2de8:	d065      	beq.n	2eb6 <__udivsi3+0xfe>
    2dea:	0b03      	lsrs	r3, r0, #12
    2dec:	428b      	cmp	r3, r1
    2dee:	d319      	bcc.n	2e24 <__udivsi3+0x6c>
    2df0:	e000      	b.n	2df4 <__udivsi3+0x3c>
    2df2:	0a09      	lsrs	r1, r1, #8
    2df4:	0bc3      	lsrs	r3, r0, #15
    2df6:	428b      	cmp	r3, r1
    2df8:	d301      	bcc.n	2dfe <__udivsi3+0x46>
    2dfa:	03cb      	lsls	r3, r1, #15
    2dfc:	1ac0      	subs	r0, r0, r3
    2dfe:	4152      	adcs	r2, r2
    2e00:	0b83      	lsrs	r3, r0, #14
    2e02:	428b      	cmp	r3, r1
    2e04:	d301      	bcc.n	2e0a <__udivsi3+0x52>
    2e06:	038b      	lsls	r3, r1, #14
    2e08:	1ac0      	subs	r0, r0, r3
    2e0a:	4152      	adcs	r2, r2
    2e0c:	0b43      	lsrs	r3, r0, #13
    2e0e:	428b      	cmp	r3, r1
    2e10:	d301      	bcc.n	2e16 <__udivsi3+0x5e>
    2e12:	034b      	lsls	r3, r1, #13
    2e14:	1ac0      	subs	r0, r0, r3
    2e16:	4152      	adcs	r2, r2
    2e18:	0b03      	lsrs	r3, r0, #12
    2e1a:	428b      	cmp	r3, r1
    2e1c:	d301      	bcc.n	2e22 <__udivsi3+0x6a>
    2e1e:	030b      	lsls	r3, r1, #12
    2e20:	1ac0      	subs	r0, r0, r3
    2e22:	4152      	adcs	r2, r2
    2e24:	0ac3      	lsrs	r3, r0, #11
    2e26:	428b      	cmp	r3, r1
    2e28:	d301      	bcc.n	2e2e <__udivsi3+0x76>
    2e2a:	02cb      	lsls	r3, r1, #11
    2e2c:	1ac0      	subs	r0, r0, r3
    2e2e:	4152      	adcs	r2, r2
    2e30:	0a83      	lsrs	r3, r0, #10
    2e32:	428b      	cmp	r3, r1
    2e34:	d301      	bcc.n	2e3a <__udivsi3+0x82>
    2e36:	028b      	lsls	r3, r1, #10
    2e38:	1ac0      	subs	r0, r0, r3
    2e3a:	4152      	adcs	r2, r2
    2e3c:	0a43      	lsrs	r3, r0, #9
    2e3e:	428b      	cmp	r3, r1
    2e40:	d301      	bcc.n	2e46 <__udivsi3+0x8e>
    2e42:	024b      	lsls	r3, r1, #9
    2e44:	1ac0      	subs	r0, r0, r3
    2e46:	4152      	adcs	r2, r2
    2e48:	0a03      	lsrs	r3, r0, #8
    2e4a:	428b      	cmp	r3, r1
    2e4c:	d301      	bcc.n	2e52 <__udivsi3+0x9a>
    2e4e:	020b      	lsls	r3, r1, #8
    2e50:	1ac0      	subs	r0, r0, r3
    2e52:	4152      	adcs	r2, r2
    2e54:	d2cd      	bcs.n	2df2 <__udivsi3+0x3a>
    2e56:	09c3      	lsrs	r3, r0, #7
    2e58:	428b      	cmp	r3, r1
    2e5a:	d301      	bcc.n	2e60 <__udivsi3+0xa8>
    2e5c:	01cb      	lsls	r3, r1, #7
    2e5e:	1ac0      	subs	r0, r0, r3
    2e60:	4152      	adcs	r2, r2
    2e62:	0983      	lsrs	r3, r0, #6
    2e64:	428b      	cmp	r3, r1
    2e66:	d301      	bcc.n	2e6c <__udivsi3+0xb4>
    2e68:	018b      	lsls	r3, r1, #6
    2e6a:	1ac0      	subs	r0, r0, r3
    2e6c:	4152      	adcs	r2, r2
    2e6e:	0943      	lsrs	r3, r0, #5
    2e70:	428b      	cmp	r3, r1
    2e72:	d301      	bcc.n	2e78 <__udivsi3+0xc0>
    2e74:	014b      	lsls	r3, r1, #5
    2e76:	1ac0      	subs	r0, r0, r3
    2e78:	4152      	adcs	r2, r2
    2e7a:	0903      	lsrs	r3, r0, #4
    2e7c:	428b      	cmp	r3, r1
    2e7e:	d301      	bcc.n	2e84 <__udivsi3+0xcc>
    2e80:	010b      	lsls	r3, r1, #4
    2e82:	1ac0      	subs	r0, r0, r3
    2e84:	4152      	adcs	r2, r2
    2e86:	08c3      	lsrs	r3, r0, #3
    2e88:	428b      	cmp	r3, r1
    2e8a:	d301      	bcc.n	2e90 <__udivsi3+0xd8>
    2e8c:	00cb      	lsls	r3, r1, #3
    2e8e:	1ac0      	subs	r0, r0, r3
    2e90:	4152      	adcs	r2, r2
    2e92:	0883      	lsrs	r3, r0, #2
    2e94:	428b      	cmp	r3, r1
    2e96:	d301      	bcc.n	2e9c <__udivsi3+0xe4>
    2e98:	008b      	lsls	r3, r1, #2
    2e9a:	1ac0      	subs	r0, r0, r3
    2e9c:	4152      	adcs	r2, r2
    2e9e:	0843      	lsrs	r3, r0, #1
    2ea0:	428b      	cmp	r3, r1
    2ea2:	d301      	bcc.n	2ea8 <__udivsi3+0xf0>
    2ea4:	004b      	lsls	r3, r1, #1
    2ea6:	1ac0      	subs	r0, r0, r3
    2ea8:	4152      	adcs	r2, r2
    2eaa:	1a41      	subs	r1, r0, r1
    2eac:	d200      	bcs.n	2eb0 <__udivsi3+0xf8>
    2eae:	4601      	mov	r1, r0
    2eb0:	4152      	adcs	r2, r2
    2eb2:	4610      	mov	r0, r2
    2eb4:	4770      	bx	lr
    2eb6:	e7ff      	b.n	2eb8 <__udivsi3+0x100>
    2eb8:	b501      	push	{r0, lr}
    2eba:	2000      	movs	r0, #0
    2ebc:	f000 f806 	bl	2ecc <__aeabi_idiv0>
    2ec0:	bd02      	pop	{r1, pc}
    2ec2:	46c0      	nop			; (mov r8, r8)

00002ec4 <__aeabi_uidivmod>:
    2ec4:	2900      	cmp	r1, #0
    2ec6:	d0f7      	beq.n	2eb8 <__udivsi3+0x100>
    2ec8:	e776      	b.n	2db8 <__udivsi3>
    2eca:	4770      	bx	lr

00002ecc <__aeabi_idiv0>:
    2ecc:	4770      	bx	lr
    2ece:	46c0      	nop			; (mov r8, r8)

00002ed0 <__aeabi_lmul>:
    2ed0:	b5f0      	push	{r4, r5, r6, r7, lr}
    2ed2:	0415      	lsls	r5, r2, #16
    2ed4:	0c2d      	lsrs	r5, r5, #16
    2ed6:	000f      	movs	r7, r1
    2ed8:	0001      	movs	r1, r0
    2eda:	002e      	movs	r6, r5
    2edc:	46c6      	mov	lr, r8
    2ede:	4684      	mov	ip, r0
    2ee0:	0400      	lsls	r0, r0, #16
    2ee2:	0c14      	lsrs	r4, r2, #16
    2ee4:	0c00      	lsrs	r0, r0, #16
    2ee6:	0c09      	lsrs	r1, r1, #16
    2ee8:	4346      	muls	r6, r0
    2eea:	434d      	muls	r5, r1
    2eec:	4360      	muls	r0, r4
    2eee:	4361      	muls	r1, r4
    2ef0:	1940      	adds	r0, r0, r5
    2ef2:	0c34      	lsrs	r4, r6, #16
    2ef4:	1824      	adds	r4, r4, r0
    2ef6:	b500      	push	{lr}
    2ef8:	42a5      	cmp	r5, r4
    2efa:	d903      	bls.n	2f04 <__aeabi_lmul+0x34>
    2efc:	2080      	movs	r0, #128	; 0x80
    2efe:	0240      	lsls	r0, r0, #9
    2f00:	4680      	mov	r8, r0
    2f02:	4441      	add	r1, r8
    2f04:	0c25      	lsrs	r5, r4, #16
    2f06:	186d      	adds	r5, r5, r1
    2f08:	4661      	mov	r1, ip
    2f0a:	4359      	muls	r1, r3
    2f0c:	437a      	muls	r2, r7
    2f0e:	0430      	lsls	r0, r6, #16
    2f10:	1949      	adds	r1, r1, r5
    2f12:	0424      	lsls	r4, r4, #16
    2f14:	0c00      	lsrs	r0, r0, #16
    2f16:	1820      	adds	r0, r4, r0
    2f18:	1889      	adds	r1, r1, r2
    2f1a:	bc04      	pop	{r2}
    2f1c:	4690      	mov	r8, r2
    2f1e:	bdf0      	pop	{r4, r5, r6, r7, pc}

00002f20 <__gnu_thumb1_case_shi>:
    2f20:	b403      	push	{r0, r1}
    2f22:	4671      	mov	r1, lr
    2f24:	0849      	lsrs	r1, r1, #1
    2f26:	0040      	lsls	r0, r0, #1
    2f28:	0049      	lsls	r1, r1, #1
    2f2a:	5e09      	ldrsh	r1, [r1, r0]
    2f2c:	0049      	lsls	r1, r1, #1
    2f2e:	448e      	add	lr, r1
    2f30:	bc03      	pop	{r0, r1}
    2f32:	4770      	bx	lr
    2f34:	4c554e00 	.word	0x4c554e00
    2f38:	0000004c 	.word	0x0000004c
    2f3c:	0000330c 	.word	0x0000330c
    2f40:	00000c4d 	.word	0x00000c4d
    2f44:	00000067 	.word	0x00000067
    2f48:	00003311 	.word	0x00003311
    2f4c:	000010f1 	.word	0x000010f1
    2f50:	00000067 	.word	0x00000067
    2f54:	00003318 	.word	0x00003318
    2f58:	00000c99 	.word	0x00000c99
    2f5c:	00000067 	.word	0x00000067
    2f60:	0000331f 	.word	0x0000331f
    2f64:	000013f5 	.word	0x000013f5
    2f68:	00000061 	.word	0x00000061
    2f6c:	00003327 	.word	0x00003327
    2f70:	00000edd 	.word	0x00000edd
    2f74:	00000067 	.word	0x00000067
    2f78:	0000332e 	.word	0x0000332e
    2f7c:	000012f1 	.word	0x000012f1
    2f80:	00000061 	.word	0x00000061
    2f84:	00003333 	.word	0x00003333
    2f88:	00000bd5 	.word	0x00000bd5
    2f8c:	00000061 	.word	0x00000061
    2f90:	00000000 	.word	0x00000000
    2f94:	00000018 	.word	0x00000018
    2f98:	00000000 	.word	0x00000000
    2f9c:	00000019 	.word	0x00000019
    2fa0:	00000301 	.word	0x00000301
    2fa4:	00000000 	.word	0x00000000
    2fa8:	00000005 	.word	0x00000005
    2fac:	00000000 	.word	0x00000000
    2fb0:	00000008 	.word	0x00000008
    2fb4:	00000000 	.word	0x00000000
    2fb8:	00000009 	.word	0x00000009
    2fbc:	01010101 	.word	0x01010101
    2fc0:	00000001 	.word	0x00000001
    2fc4:	000033b2 	.word	0x000033b2
    2fc8:	0000123b 	.word	0x0000123b
    2fcc:	00000061 	.word	0x00000061
    2fd0:	532b5441 	.word	0x532b5441
    2fd4:	52425041 	.word	0x52425041
    2fd8:	312c333d 	.word	0x312c333d
    2fdc:	5041222c 	.word	0x5041222c
    2fe0:	222c224e 	.word	0x222c224e
    2fe4:	65746e69 	.word	0x65746e69
    2fe8:	74656e72 	.word	0x74656e72
    2fec:	54410022 	.word	0x54410022
    2ff0:	5041532b 	.word	0x5041532b
    2ff4:	313d5242 	.word	0x313d5242
    2ff8:	2b00312c 	.word	0x2b00312c
    2ffc:	42504153 	.word	0x42504153
    3000:	31203a52 	.word	0x31203a52
    3004:	4100312c 	.word	0x4100312c
    3008:	41532b54 	.word	0x41532b54
    300c:	3d524250 	.word	0x3d524250
    3010:	00312c32 	.word	0x00312c32
    3014:	532b5441 	.word	0x532b5441
    3018:	52425041 	.word	0x52425041
    301c:	312c303d 	.word	0x312c303d
    3020:	73694c00 	.word	0x73694c00
    3024:	000a3a74 	.word	0x000a3a74
    3028:	4c43432b 	.word	0x4c43432b
    302c:	00203a4b 	.word	0x00203a4b
    3030:	432b5441 	.word	0x432b5441
    3034:	3f4b4c43 	.word	0x3f4b4c43
    3038:	2b544100 	.word	0x2b544100
    303c:	45525346 	.word	0x45525346
    3040:	433d4441 	.word	0x433d4441
    3044:	73255c3a 	.word	0x73255c3a
    3048:	7478742e 	.word	0x7478742e
    304c:	312c302c 	.word	0x312c302c
    3050:	4100302c 	.word	0x4100302c
    3054:	4d432b54 	.word	0x4d432b54
    3058:	223d5347 	.word	0x223d5347
    305c:	00227325 	.word	0x00227325
    3060:	474d432b 	.word	0x474d432b
    3064:	001a0053 	.word	0x001a0053
    3068:	462b5441 	.word	0x462b5441
    306c:	45524353 	.word	0x45524353
    3070:	3d455441 	.word	0x3d455441
    3074:	665c3a43 	.word	0x665c3a43
    3078:	642e7074 	.word	0x642e7074
    307c:	41007461 	.word	0x41007461
    3080:	53462b54 	.word	0x53462b54
    3084:	54495257 	.word	0x54495257
    3088:	3a433d45 	.word	0x3a433d45
    308c:	7074665c 	.word	0x7074665c
    3090:	7461642e 	.word	0x7461642e
    3094:	252c302c 	.word	0x252c302c
    3098:	00312c64 	.word	0x00312c64
    309c:	6f727245 	.word	0x6f727245
    30a0:	0a0d0072 	.word	0x0a0d0072
    30a4:	6d6f4300 	.word	0x6d6f4300
    30a8:	646e616d 	.word	0x646e616d
    30ac:	6d697420 	.word	0x6d697420
    30b0:	6f206465 	.word	0x6f206465
    30b4:	75007475 	.word	0x75007475
    30b8:	2d747261 	.word	0x2d747261
    30bc:	6165723e 	.word	0x6165723e
    30c0:	20292864 	.word	0x20292864
    30c4:	75746572 	.word	0x75746572
    30c8:	64656e72 	.word	0x64656e72
    30cc:	6c756e20 	.word	0x6c756e20
    30d0:	7355006c 	.word	0x7355006c
    30d4:	3a656761 	.word	0x3a656761
    30d8:	6c656420 	.word	0x6c656420
    30dc:	206d756e 	.word	0x206d756e
    30e0:	6d756e3c 	.word	0x6d756e3c
    30e4:	3e726562 	.word	0x3e726562
    30e8:	2b544100 	.word	0x2b544100
    30ec:	45445346 	.word	0x45445346
    30f0:	3a433d4c 	.word	0x3a433d4c
    30f4:	2e73255c 	.word	0x2e73255c
    30f8:	00747874 	.word	0x00747874
    30fc:	6c6c616d 	.word	0x6c6c616d
    3100:	6620636f 	.word	0x6620636f
    3104:	656c6961 	.word	0x656c6961
    3108:	73550064 	.word	0x73550064
    310c:	3a656761 	.word	0x3a656761
    3110:	74657320 	.word	0x74657320
    3114:	656d616e 	.word	0x656d616e
    3118:	64693c20 	.word	0x64693c20
    311c:	6e3c203e 	.word	0x6e3c203e
    3120:	6e207765 	.word	0x6e207765
    3124:	3e656d61 	.word	0x3e656d61
    3128:	6d6f4300 	.word	0x6d6f4300
    312c:	646e616d 	.word	0x646e616d
    3130:	65757120 	.word	0x65757120
    3134:	00646575 	.word	0x00646575
    3138:	462b5441 	.word	0x462b5441
    313c:	41455253 	.word	0x41455253
    3140:	3a433d44 	.word	0x3a433d44
    3144:	7074665c 	.word	0x7074665c
    3148:	7461642e 	.word	0x7461642e
    314c:	362c302c 	.word	0x362c302c
    3150:	00302c34 	.word	0x00302c34
    3154:	41000d20 	.word	0x41000d20
    3158:	54462b54 	.word	0x54462b54
    315c:	52455350 	.word	0x52455350
    3160:	41003d56 	.word	0x41003d56
    3164:	54462b54 	.word	0x54462b54
    3168:	3d4e5550 	.word	0x3d4e5550
    316c:	2b544100 	.word	0x2b544100
    3170:	50505446 	.word	0x50505446
    3174:	41003d57 	.word	0x41003d57
    3178:	54462b54 	.word	0x54462b54
    317c:	54454750 	.word	0x54454750
    3180:	48544150 	.word	0x48544150
    3184:	41002f3d 	.word	0x41002f3d
    3188:	54462b54 	.word	0x54462b54
    318c:	54454750 	.word	0x54454750
    3190:	454d414e 	.word	0x454d414e
    3194:	6470753d 	.word	0x6470753d
    3198:	2e657461 	.word	0x2e657461
    319c:	006e6962 	.word	0x006e6962
    31a0:	462b5441 	.word	0x462b5441
    31a4:	45475054 	.word	0x45475054
    31a8:	464f5454 	.word	0x464f5454
    31ac:	2c303d53 	.word	0x2c303d53
    31b0:	61647075 	.word	0x61647075
    31b4:	622e6574 	.word	0x622e6574
    31b8:	2b006e69 	.word	0x2b006e69
    31bc:	47505446 	.word	0x47505446
    31c0:	4f545445 	.word	0x4f545445
    31c4:	203a5346 	.word	0x203a5346
    31c8:	55002c30 	.word	0x55002c30
    31cc:	74616470 	.word	0x74616470
    31d0:	61662065 	.word	0x61662065
    31d4:	64656c69 	.word	0x64656c69
    31d8:	2b544100 	.word	0x2b544100
    31dc:	52435346 	.word	0x52435346
    31e0:	45544145 	.word	0x45544145
    31e4:	5c3a433d 	.word	0x5c3a433d
    31e8:	742e7325 	.word	0x742e7325
    31ec:	41007478 	.word	0x41007478
    31f0:	53462b54 	.word	0x53462b54
    31f4:	54495257 	.word	0x54495257
    31f8:	3a433d45 	.word	0x3a433d45
    31fc:	2e73255c 	.word	0x2e73255c
    3200:	2c747874 	.word	0x2c747874
    3204:	2c312c30 	.word	0x2c312c30
    3208:	73550031 	.word	0x73550031
    320c:	3a656761 	.word	0x3a656761
    3210:	74657320 	.word	0x74657320
    3214:	206d756e 	.word	0x206d756e
    3218:	6d756e3c 	.word	0x6d756e3c
    321c:	3e726562 	.word	0x3e726562
    3220:	656c3c20 	.word	0x656c3c20
    3224:	3e6c6576 	.word	0x3e6c6576
    3228:	646f4e00 	.word	0x646f4e00
    322c:	200a3a65 	.word	0x200a3a65
    3230:	203a4449 	.word	0x203a4449
    3234:	200a6425 	.word	0x200a6425
    3238:	656d614e 	.word	0x656d614e
    323c:	7325203a 	.word	0x7325203a
    3240:	7954200a 	.word	0x7954200a
    3244:	203a6570 	.word	0x203a6570
    3248:	200a6425 	.word	0x200a6425
    324c:	7473614c 	.word	0x7473614c
    3250:	65657320 	.word	0x65657320
    3254:	25203a6e 	.word	0x25203a6e
    3258:	65732064 	.word	0x65732064
    325c:	67612063 	.word	0x67612063
    3260:	20000a6f 	.word	0x20000a6f
    3264:	6c696f53 	.word	0x6c696f53
    3268:	696f6d20 	.word	0x696f6d20
    326c:	72757473 	.word	0x72757473
    3270:	65732065 	.word	0x65732065
    3274:	726f736e 	.word	0x726f736e
    3278:	20200a3a 	.word	0x20200a3a
    327c:	73696f4d 	.word	0x73696f4d
    3280:	65727574 	.word	0x65727574
    3284:	6425203a 	.word	0x6425203a
    3288:	5420000a 	.word	0x5420000a
    328c:	65706d65 	.word	0x65706d65
    3290:	75746172 	.word	0x75746172
    3294:	2b206572 	.word	0x2b206572
    3298:	6d756820 	.word	0x6d756820
    329c:	74696469 	.word	0x74696469
    32a0:	65732079 	.word	0x65732079
    32a4:	726f736e 	.word	0x726f736e
    32a8:	20200a3a 	.word	0x20200a3a
    32ac:	706d6554 	.word	0x706d6554
    32b0:	74617265 	.word	0x74617265
    32b4:	3a657275 	.word	0x3a657275
    32b8:	0a642520 	.word	0x0a642520
    32bc:	75482020 	.word	0x75482020
    32c0:	6964696d 	.word	0x6964696d
    32c4:	203a7974 	.word	0x203a7974
    32c8:	000a6425 	.word	0x000a6425
    32cc:	6d655420 	.word	0x6d655420
    32d0:	61726570 	.word	0x61726570
    32d4:	65727574 	.word	0x65727574
    32d8:	6e657320 	.word	0x6e657320
    32dc:	3a726f73 	.word	0x3a726f73
    32e0:	5420200a 	.word	0x5420200a
    32e4:	65706d65 	.word	0x65706d65
    32e8:	75746172 	.word	0x75746172
    32ec:	203a6572 	.word	0x203a6572
    32f0:	000a6425 	.word	0x000a6425
    32f4:	000a7325 	.word	0x000a7325
    32f8:	462b5441 	.word	0x462b5441
    32fc:	3d534c53 	.word	0x3d534c53
    3300:	005c3a43 	.word	0x005c3a43
    3304:	203a7325 	.word	0x203a7325
    3308:	000a6325 	.word	0x000a6325
    330c:	63657865 	.word	0x63657865
    3310:	74657300 	.word	0x74657300
    3314:	006d756e 	.word	0x006d756e
    3318:	6e6c6564 	.word	0x6e6c6564
    331c:	6c006d75 	.word	0x6c006d75
    3320:	6e747369 	.word	0x6e747369
    3324:	75006d75 	.word	0x75006d75
    3328:	74616470 	.word	0x74616470
    332c:	65680065 	.word	0x65680065
    3330:	7300706c 	.word	0x7300706c
    3334:	74667465 	.word	0x74667465
    3338:	65726370 	.word	0x65726370
    333c:	41007364 	.word	0x41007364
    3340:	54410054 	.word	0x54410054
    3344:	2b003045 	.word	0x2b003045
    3348:	47455243 	.word	0x47455243
    334c:	2c30203a 	.word	0x2c30203a
    3350:	54410031 	.word	0x54410031
    3354:	4552432b 	.word	0x4552432b
    3358:	41003f47 	.word	0x41003f47
    335c:	4d432b54 	.word	0x4d432b54
    3360:	313d4647 	.word	0x313d4647
    3364:	2b544100 	.word	0x2b544100
    3368:	44474d43 	.word	0x44474d43
    336c:	44223d41 	.word	0x44223d41
    3370:	41204c45 	.word	0x41204c45
    3374:	00224c4c 	.word	0x00224c4c
    3378:	61647055 	.word	0x61647055
    337c:	73206574 	.word	0x73206574
    3380:	65636375 	.word	0x65636375
    3384:	75667373 	.word	0x75667373
    3388:	76202c6c 	.word	0x76202c6c
    338c:	69737265 	.word	0x69737265
    3390:	31206e6f 	.word	0x31206e6f
    3394:	6220302e 	.word	0x6220302e
    3398:	746c6975 	.word	0x746c6975
    339c:	79614d20 	.word	0x79614d20
    33a0:	20333120 	.word	0x20333120
    33a4:	30323032 	.word	0x30323032
    33a8:	3a313220 	.word	0x3a313220
    33ac:	313a3932 	.word	0x313a3932
    33b0:	6e690038 	.word	0x6e690038
    33b4:	73006f66 	.word	0x73006f66
    33b8:	616e7465 	.word	0x616e7465
    33bc:	6300656d 	.word	0x6300656d
    33c0:	7261656c 	.word	0x7261656c
    33c4:	4e495200 	.word	0x4e495200
    33c8:	54410047 	.word	0x54410047
    33cc:	432b0048 	.word	0x432b0048
    33d0:	0049544d 	.word	0x0049544d
    33d4:	432b5441 	.word	0x432b5441
    33d8:	3d52474d 	.word	0x3d52474d
    33dc:	2b006425 	.word	0x2b006425
    33e0:	52474d43 	.word	0x52474d43
    33e4:	0d0a0d00 	.word	0x0d0a0d00
    33e8:	004b4f0a 	.word	0x004b4f0a
    33ec:	2500222c 	.word	0x2500222c
    33f0:	2f643230 	.word	0x2f643230
    33f4:	64323025 	.word	0x64323025
    33f8:	3230252f 	.word	0x3230252f
    33fc:	30252064 	.word	0x30252064
    3400:	253a6432 	.word	0x253a6432
    3404:	20643230 	.word	0x20643230
    3408:	4449202d 	.word	0x4449202d
    340c:	20642520 	.word	0x20642520
    3410:	656d616e 	.word	0x656d616e
    3414:	382e2520 	.word	0x382e2520
    3418:	79742073 	.word	0x79742073
    341c:	25206570 	.word	0x25206570
    3420:	76200064 	.word	0x76200064
    3424:	65756c61 	.word	0x65756c61
    3428:	00642520 	.word	0x00642520
    342c:	6c6f7620 	.word	0x6c6f7620
    3430:	65676174 	.word	0x65676174
    3434:	20642520 	.word	0x20642520
    3438:	6867696c 	.word	0x6867696c
    343c:	64252074 	.word	0x64252074
    3440:	69617220 	.word	0x69617220
    3444:	6425206e 	.word	0x6425206e
    3448:	2b544100 	.word	0x2b544100
    344c:	50505446 	.word	0x50505446
    3450:	41505455 	.word	0x41505455
    3454:	2f3d4854 	.word	0x2f3d4854
    3458:	2b544100 	.word	0x2b544100
    345c:	50505446 	.word	0x50505446
    3460:	414e5455 	.word	0x414e5455
    3464:	003d454d 	.word	0x003d454d
    3468:	61746164 	.word	0x61746164
    346c:	7478742e 	.word	0x7478742e
    3470:	2b544100 	.word	0x2b544100
    3474:	50505446 	.word	0x50505446
    3478:	504f5455 	.word	0x504f5455
    347c:	41223d54 	.word	0x41223d54
    3480:	22455050 	.word	0x22455050
    3484:	2b544100 	.word	0x2b544100
    3488:	50505446 	.word	0x50505446
    348c:	313d5455 	.word	0x313d5455
    3490:	54462b00 	.word	0x54462b00
    3494:	54555050 	.word	0x54555050
    3498:	2c31203a 	.word	0x2c31203a
    349c:	41002c31 	.word	0x41002c31
    34a0:	54462b54 	.word	0x54462b54
    34a4:	54555050 	.word	0x54555050
    34a8:	252c323d 	.word	0x252c323d
    34ac:	462b0064 	.word	0x462b0064
    34b0:	55505054 	.word	0x55505054
    34b4:	31203a54 	.word	0x31203a54
    34b8:	4100302c 	.word	0x4100302c
    34bc:	54462b54 	.word	0x54462b54
    34c0:	54555050 	.word	0x54555050
    34c4:	302c323d 	.word	0x302c323d
	...

000034c9 <_ctype_>:
    34c9:	20202000 20202020 28282020 20282828     .         ((((( 
    34d9:	20202020 20202020 20202020 20202020                     
    34e9:	10108820 10101010 10101010 10101010      ...............
    34f9:	04040410 04040404 10040404 10101010     ................
    3509:	41411010 41414141 01010101 01010101     ..AAAAAA........
    3519:	01010101 01010101 01010101 10101010     ................
    3529:	42421010 42424242 02020202 02020202     ..BBBBBB........
    3539:	02020202 02020202 02020202 10101010     ................
    3549:	00000020 00000000 00000000 00000000      ...............
	...
    35c9:	302d2300 6800202b 65004c6c 46456766     .#-0+ .hlL.efgEF
    35d9:	31300047 35343332 39383736 44434241     G.0123456789ABCD
    35e9:	30004645 34333231 38373635 63626139     EF.0123456789abc
    35f9:	00666564                                 def....

00003600 <_init>:
    3600:	b5f8      	push	{r3, r4, r5, r6, r7, lr}
    3602:	46c0      	nop			; (mov r8, r8)
    3604:	bcf8      	pop	{r3, r4, r5, r6, r7}
    3606:	bc08      	pop	{r3}
    3608:	469e      	mov	lr, r3
    360a:	4770      	bx	lr

0000360c <__init_array_start>:
    360c:	00000029 	.word	0x00000029
    3610:	000016b5 	.word	0x000016b5

00003614 <_fini>:
    3614:	b5f8      	push	{r3, r4, r5, r6, r7, lr}
    3616:	46c0      	nop			; (mov r8, r8)
    3618:	bcf8      	pop	{r3, r4, r5, r6, r7}
    361a:	bc08      	pop	{r3}
    361c:	469e      	mov	lr, r3
    361e:	4770      	bx	lr

00003620 <___ZN3GSM15RAMFunc_wait_rxEv_veneer>:
    3620:	b401      	push	{r0}
    3622:	4802      	ldr	r0, [pc, #8]	; (362c <___ZN3GSM15RAMFunc_wait_rxEv_veneer+0xc>)
    3624:	4684      	mov	ip, r0
    3626:	bc01      	pop	{r0}
    3628:	4760      	bx	ip
    362a:	bf00      	nop
    362c:	2000000d 	.word	0x2000000d

00003630 <__delay_usec.constprop.0_veneer>:
    3630:	b401      	push	{r0}
    3632:	4802      	ldr	r0, [pc, #8]	; (363c <__delay_usec.constprop.0_veneer+0xc>)
    3634:	4684      	mov	ip, r0
    3636:	bc01      	pop	{r0}
    3638:	4760      	bx	ip
    363a:	bf00      	nop
    363c:	20000001 	.word	0x20000001

00003640 <___ZN3GSM13RAMFunc_writeEc_veneer>:
    3640:	b401      	push	{r0}
    3642:	4802      	ldr	r0, [pc, #8]	; (364c <___ZN3GSM13RAMFunc_writeEc_veneer+0xc>)
    3644:	4684      	mov	ip, r0
    3646:	bc01      	pop	{r0}
    3648:	4760      	bx	ip
    364a:	bf00      	nop
    364c:	2000002d 	.word	0x2000002d

00003650 <__fini_array_start>:
    3650:	00000001 	.word	0x00000001

Disassembly of section .data:

20000000 <delay_usec.constprop.0>:
20000000:	210f      	movs	r1, #15

20000002 <mydelay1>:
20000002:	3901      	subs	r1, #1
20000004:	d1fd      	bne.n	20000002 <mydelay1>
20000006:	3801      	subs	r0, #1
20000008:	d1fa      	bne.n	20000000 <delay_usec.constprop.0>
2000000a:	4770      	bx	lr

2000000c <_ZN3GSM15RAMFunc_wait_rxEv>:
2000000c:	2382      	movs	r3, #130	; 0x82
2000000e:	6882      	ldr	r2, [r0, #8]
20000010:	009b      	lsls	r3, r3, #2
20000012:	58d1      	ldr	r1, [r2, r3]
20000014:	4a04      	ldr	r2, [pc, #16]	; (20000028 <_ZN3GSM15RAMFunc_wait_rxEv+0x1c>)
20000016:	7e0b      	ldrb	r3, [r1, #24]
20000018:	075b      	lsls	r3, r3, #29
2000001a:	0fd8      	lsrs	r0, r3, #31
2000001c:	2b00      	cmp	r3, #0
2000001e:	db02      	blt.n	20000026 <_ZN3GSM15RAMFunc_wait_rxEv+0x1a>
20000020:	3a01      	subs	r2, #1
20000022:	2a00      	cmp	r2, #0
20000024:	d1f7      	bne.n	20000016 <_ZN3GSM15RAMFunc_wait_rxEv+0xa>
20000026:	4770      	bx	lr
20000028:	000f4241 	.word	0x000f4241

2000002c <_ZN3GSM13RAMFunc_writeEc>:
2000002c:	2382      	movs	r3, #130	; 0x82
2000002e:	6882      	ldr	r2, [r0, #8]
20000030:	009b      	lsls	r3, r3, #2
20000032:	58d2      	ldr	r2, [r2, r3]
20000034:	8511      	strh	r1, [r2, #40]	; 0x28
20000036:	6882      	ldr	r2, [r0, #8]
20000038:	58d2      	ldr	r2, [r2, r3]
2000003a:	7e13      	ldrb	r3, [r2, #24]
2000003c:	07db      	lsls	r3, r3, #31
2000003e:	d5fc      	bpl.n	2000003a <_ZN3GSM13RAMFunc_writeEc+0xe>
20000040:	4770      	bx	lr
20000042:	46c0      	nop			; (mov r8, r8)

20000044 <__dso_handle>:
20000044:	0000 0000                                   ....

20000048 <_ZL6fsread>:
20000048:	5441 462b 5253 4145 3d44 3a43 555c 6573     AT+FSREAD=C:\Use
20000058:	5c72 5446 5c50 7075 6164 6574 622e 6e69     r\FTP\update.bin
20000068:	312c 362c 2c34 0000                         ,1,64,..

20000070 <_ZL11subtractors>:
20000070:	2710 03e8 0064 000a 0001 0000               .'..d.......

2000007c <_ZL9rtc_count>:
2000007c:	000a 0000                                   ....

20000080 <_impure_ptr>:
20000080:	0084 2000                                   ... 

20000084 <impure_data>:
	...
